Component: ARM Compiler 5.06 update 5 (build 528) Tool: armlink [4d35e2]

==============================================================================

Section Cross References

    exemplotiva.o(.text) refers to llsdiv.o(.text) for __aeabi_ldivmod
    exemplotiva.o(.text) refers to uart.o(.text) for UART_init
    exemplotiva.o(.text) refers to pwm.o(.text) for PWM_init
    exemplotiva.o(.text) refers to timer.o(.text) for timer_init
    exemplotiva.o(.text) refers to cfaf128x128x16.o(.text) for cfaf128x128x16Init
    exemplotiva.o(.text) refers to f2d.o(x$fpl$f2d) for __aeabi_f2d
    exemplotiva.o(.text) refers to dmul.o(x$fpl$dmul) for __aeabi_dmul
    exemplotiva.o(.text) refers to ddiv.o(x$fpl$ddiv) for __aeabi_ddiv
    exemplotiva.o(.text) refers to d2f.o(x$fpl$d2f) for __aeabi_d2f
    exemplotiva.o(.text) refers to daddsub_clz.o(x$fpl$dadd) for __aeabi_dadd
    exemplotiva.o(.text) refers to daddsub_clz.o(x$fpl$drsb) for __aeabi_drsub
    exemplotiva.o(.text) refers to sin.o(i.__hardfp_sin) for __hardfp_sin
    exemplotiva.o(.text) refers to cos.o(i.__hardfp_cos) for __hardfp_cos
    exemplotiva.o(.text) refers to dflt_clz.o(x$fpl$dflt) for __aeabi_i2d
    exemplotiva.o(.text) refers to sqrt.o(i.__hardfp_sqrt) for __hardfp_sqrt
    exemplotiva.o(.text) refers to dflt_clz.o(x$fpl$dfltu) for __aeabi_ui2d
    exemplotiva.o(.text) refers to atan.o(i.__hardfp_atan) for __hardfp_atan
    exemplotiva.o(.text) refers to dfix.o(x$fpl$dfix) for __aeabi_d2iz
    exemplotiva.o(.text) refers to daddsub_clz.o(x$fpl$dsub) for __aeabi_dsub
    exemplotiva.o(.text) refers to exemplotiva.o(.data) for .data
    exemplotiva.o(.text) refers to rt_cmsis.o(i.osKernelSysTick) for osKernelSysTick
    exemplotiva.o(.text) refers to rt_cmsis.o(i.osMessagePut) for osMessagePut
    exemplotiva.o(.text) refers to rt_cmsis.o(i.osSignalWait) for osSignalWait
    exemplotiva.o(.text) refers to rt_cmsis.o(i.osMessageGet) for osMessageGet
    exemplotiva.o(.text) refers to rt_cmsis.o(i.osThreadYield) for osThreadYield
    exemplotiva.o(.text) refers to rt_cmsis.o(i.osThreadCreate) for osThreadCreate
    exemplotiva.o(.text) refers to rt_cmsis.o(i.osMessageCreate) for osMessageCreate
    exemplotiva.o(.text) refers to context.o(i.GrContextInit) for GrContextInit
    exemplotiva.o(.text) refers to string.o(i.GrContextFontSet) for GrContextFontSet
    exemplotiva.o(.text) refers to string.o(i.GrStringDraw) for GrStringDraw
    exemplotiva.o(.text) refers to exemplotiva.o(.constdata) for .constdata
    exemplotiva.o(.text) refers to cfaf128x128x16.o(.constdata) for g_sCfaf128x128x16
    exemplotiva.o(.text) refers to exemplotiva.o(.bss) for .bss
    exemplotiva.o(.text) refers to fontfixed6x8.o(.constdata) for g_sFontFixed6x8
    exemplotiva.o(.text) refers to rt_memcpy_w.o(.text) for __aeabi_memcpy4
    exemplotiva.o(.text) refers to rt_cmsis.o(i.osSignalSet) for osSignalSet
    exemplotiva.o(.text) refers to rt_cmsis.o(i.osKernelInitialize) for osKernelInitialize
    exemplotiva.o(.text) refers to rt_cmsis.o(i.osKernelStart) for osKernelStart
    exemplotiva.o(.text) refers to rt_cmsis.o(i.osDelay) for osDelay
    exemplotiva.o(.constdata) refers to exemplotiva.o(.bss) for os_messageQ_q_received_char
    exemplotiva.o(.constdata) refers to exemplotiva.o(.bss) for os_messageQ_q_update_int
    exemplotiva.o(.constdata) refers to exemplotiva.o(.bss) for os_messageQ_q_newPoint
    exemplotiva.o(.constdata) refers to exemplotiva.o(.bss) for os_messageQ_q_exit_status
    exemplotiva.o(.constdata) refers to exemplotiva.o(.text) for Controle
    exemplotiva.o(.constdata) refers to exemplotiva.o(.text) for UART_Publish
    exemplotiva.o(.constdata) refers to exemplotiva.o(.text) for UART_Subscriber
    exemplotiva.o(.constdata) refers to exemplotiva.o(.text) for Gerador_pontos
    exemplotiva.o(.constdata) refers to exemplotiva.o(.text) for Fibonacci
    exemplotiva.o(.constdata) refers to exemplotiva.o(.text) for Primo
    exemplotiva.o(.data) refers to exemplotiva.o(.conststring) for .conststring
    cfaf128x128x16.o(.text) refers to cfaf128x128x16.o(.data) for .data
    cfaf128x128x16.o(.text) refers to sysctl.o(i.SysCtlClockFreqSet) for SysCtlClockFreqSet
    cfaf128x128x16.o(.constdata) refers to cfaf128x128x16.o(.text) for cfaf128x128x16PixelDraw
    rtx_conf_cm.o(.emb_text) refers to rt_cmsis.o(i.osKernelInitialize) for osKernelInitialize
    rtx_conf_cm.o(.emb_text) refers to rt_cmsis.o(i.osThreadCreate) for osThreadCreate
    rtx_conf_cm.o(.emb_text) refers to rt_cmsis.o(i.osKernelStart) for osKernelStart
    rtx_conf_cm.o(.emb_text) refers to exit.o(.text) for exit
    rtx_conf_cm.o(.emb_text) refers to rtx_conf_cm.o(.constdata) for os_thread_def_main
    rtx_conf_cm.o(.text) refers to rt_task.o(i.rt_tsk_self) for rt_tsk_self
    rtx_conf_cm.o(.text) refers to rt_mutex.o(i.rt_mut_init) for rt_mut_init
    rtx_conf_cm.o(.text) refers to rt_cmsis.o(.data) for os_running
    rtx_conf_cm.o(.text) refers to rtx_conf_cm.o(.bss) for .bss
    rtx_conf_cm.o(.text) refers to libspace.o(.bss) for __libspace_start
    rtx_conf_cm.o(.text) refers to rtx_conf_cm.o(.data) for .data
    rtx_conf_cm.o(.text) refers to rt_mutex.o(i.rt_mut_wait) for rt_mut_wait
    rtx_conf_cm.o(.text) refers to rt_mutex.o(i.rt_mut_release) for rt_mut_release
    rtx_conf_cm.o(.constdata) refers to rt_cmsis.o(i.osTimerThread) for osTimerThread
    rtx_conf_cm.o(.constdata) refers to rtx_conf_cm.o(.bss) for os_messageQ_q_osTimerMessageQ
    rtx_conf_cm.o(.constdata) refers to exemplotiva.o(.text) for main
    startup_tm4c129.o(STACK) refers (Special) to heapauxi.o(.text) for __use_two_region_memory
    startup_tm4c129.o(HEAP) refers (Special) to heapauxi.o(.text) for __use_two_region_memory
    startup_tm4c129.o(RESET) refers (Special) to heapauxi.o(.text) for __use_two_region_memory
    startup_tm4c129.o(RESET) refers to startup_tm4c129.o(STACK) for __initial_sp
    startup_tm4c129.o(RESET) refers to startup_tm4c129.o(.text) for Reset_Handler
    startup_tm4c129.o(RESET) refers to hal_cm4.o(.emb_text) for SVC_Handler
    startup_tm4c129.o(RESET) refers to exemplotiva.o(.text) for UART0_Handler
    startup_tm4c129.o(.text) refers (Special) to heapauxi.o(.text) for __use_two_region_memory
    startup_tm4c129.o(.text) refers to system_tm4c129.o(.text) for SystemInit
    startup_tm4c129.o(.text) refers to __main.o(!!!main) for __main
    startup_tm4c129.o(.text) refers to startup_tm4c129.o(HEAP) for Heap_Mem
    startup_tm4c129.o(.text) refers to startup_tm4c129.o(STACK) for Stack_Mem
    system_tm4c129.o(.text) refers to system_tm4c129.o(.data) for .data
    sysctl.o(i.SysCtlClockFreqSet) refers to sysctl.o(.constdata) for .constdata
    sysctl.o(i.SysCtlClockGet) refers to sysctl.o(.constdata) for .constdata
    sysctl.o(i.SysCtlClockSet) refers to sysctl.o(.emb_text) for SysCtlDelay
    sysctl.o(i.SysCtlDeepSleep) refers to cpu.o(.emb_text) for CPUwfi
    sysctl.o(i.SysCtlIntRegister) refers to interrupt.o(i.IntRegister) for IntRegister
    sysctl.o(i.SysCtlIntRegister) refers to interrupt.o(i.IntEnable) for IntEnable
    sysctl.o(i.SysCtlIntUnregister) refers to interrupt.o(i.IntDisable) for IntDisable
    sysctl.o(i.SysCtlIntUnregister) refers to interrupt.o(i.IntUnregister) for IntUnregister
    sysctl.o(i.SysCtlSleep) refers to cpu.o(.emb_text) for CPUwfi
    sysctl.o(i.SysCtlVCOGet) refers to sysctl.o(.constdata) for .constdata
    context.o(i.GrContextInit) refers to context.o(.data) for .data
    context.o(i.GrContextInit) refers to string.o(i.GrDefaultStringRenderer) for GrDefaultStringRenderer
    context.o(i.GrContextInit) refers to context.o(.constdata) for .constdata
    context.o(i.GrLibInit) refers to context.o(.data) for .data
    context.o(.constdata) refers to charmap.o(i.GrMapISO8859_1_Unicode) for GrMapISO8859_1_Unicode
    fontfixed6x8.o(.constdata) refers to fontfixed6x8.o(.constdata) for g_pui8FontFixed6x8Data
    string.o(i.GrCodepageMapTableSet) refers to string.o(i.UpdateContextCharMapping) for UpdateContextCharMapping
    string.o(i.GrContextFontSet) refers to string.o(i.UpdateContextCharMapping) for UpdateContextCharMapping
    string.o(i.GrDefaultStringRenderer) refers to string.o(i.GrFontGlyphDataGet) for GrFontGlyphDataGet
    string.o(i.GrDefaultStringRenderer) refers to string.o(i.GrFontGlyphRender) for GrFontGlyphRender
    string.o(i.GrStringCodepageSet) refers to string.o(i.UpdateContextCharMapping) for UpdateContextCharMapping
    string.o(i.GrStringGet) refers to string.o(.data) for .data
    string.o(i.GrStringLanguageSet) refers to string.o(.data) for .data
    string.o(i.GrStringTableSet) refers to string.o(.data) for .data
    string.o(i.GrStringWidthGet) refers to string.o(i.GrFontGlyphDataGet) for GrFontGlyphDataGet
    rt_cmsis.o(i.isrMessageGet) refers to rt_mailbox.o(i.isr_mbx_receive) for isr_mbx_receive
    rt_cmsis.o(i.isrMessagePut) refers to rt_mailbox.o(i.rt_mbx_check) for rt_mbx_check
    rt_cmsis.o(i.isrMessagePut) refers to rt_mailbox.o(i.isr_mbx_send) for isr_mbx_send
    rt_cmsis.o(i.isrSemaphoreRelease) refers to rt_cmsis.o(i.rt_id2obj) for rt_id2obj
    rt_cmsis.o(i.isrSemaphoreRelease) refers to rt_semaphore.o(i.isr_sem_send) for isr_sem_send
    rt_cmsis.o(i.isrSignalSet) refers to rt_cmsis.o(i.rt_tid2ptcb) for rt_tid2ptcb
    rt_cmsis.o(i.isrSignalSet) refers to rt_event.o(i.isr_evt_set) for isr_evt_set
    rt_cmsis.o(i.osDelay) refers to rt_cmsis.o(i.svcDelay) for svcDelay
    rt_cmsis.o(i.osKernelInitialize) refers to rt_cmsis.o(i.svcKernelInitialize) for svcKernelInitialize
    rt_cmsis.o(i.osKernelRunning) refers to rt_cmsis.o(i.svcKernelRunning) for svcKernelRunning
    rt_cmsis.o(i.osKernelRunning) refers to rt_cmsis.o(.data) for .data
    rt_cmsis.o(i.osKernelStart) refers to rtx_conf_cm.o(.constdata) for os_flags
    rt_cmsis.o(i.osKernelStart) refers to rt_cmsis.o(i.svcKernelStart) for svcKernelStart
    rt_cmsis.o(i.osKernelSysTick) refers to rt_cmsis.o(i.svcKernelSysTick) for svcKernelSysTick
    rt_cmsis.o(i.osMailAlloc) refers to rt_cmsis.o(i.sysMailAlloc) for sysMailAlloc
    rt_cmsis.o(i.osMailCAlloc) refers to rt_cmsis.o(i.sysMailAlloc) for sysMailAlloc
    rt_cmsis.o(i.osMailCAlloc) refers to rt_cmsis.o(i.rt_clr_box) for rt_clr_box
    rt_cmsis.o(i.osMailCreate) refers to rt_cmsis.o(i.svcMailCreate) for svcMailCreate
    rt_cmsis.o(i.osMailCreate) refers to rt_cmsis.o(.data) for .data
    rt_cmsis.o(i.osMailFree) refers to rt_cmsis.o(i.sysMailFree) for sysMailFree
    rt_cmsis.o(i.osMailGet) refers to rt_cmsis.o(i.osMessageGet) for osMessageGet
    rt_cmsis.o(i.osMailPut) refers to rt_cmsis.o(i.osMessagePut) for osMessagePut
    rt_cmsis.o(i.osMessageCreate) refers to rt_cmsis.o(i.svcMessageCreate) for svcMessageCreate
    rt_cmsis.o(i.osMessageCreate) refers to rt_cmsis.o(.data) for .data
    rt_cmsis.o(i.osMessageGet) refers to rt_cmsis.o(i.isrMessageGet) for isrMessageGet
    rt_cmsis.o(i.osMessageGet) refers to rt_cmsis.o(i.svcMessageGet) for svcMessageGet
    rt_cmsis.o(i.osMessagePut) refers to rt_cmsis.o(i.isrMessagePut) for isrMessagePut
    rt_cmsis.o(i.osMessagePut) refers to rt_cmsis.o(i.svcMessagePut) for svcMessagePut
    rt_cmsis.o(i.osMutexCreate) refers to rt_cmsis.o(i.svcMutexCreate) for svcMutexCreate
    rt_cmsis.o(i.osMutexCreate) refers to rt_cmsis.o(.data) for .data
    rt_cmsis.o(i.osMutexDelete) refers to rt_cmsis.o(i.svcMutexDelete) for svcMutexDelete
    rt_cmsis.o(i.osMutexRelease) refers to rt_cmsis.o(i.svcMutexRelease) for svcMutexRelease
    rt_cmsis.o(i.osMutexWait) refers to rt_cmsis.o(i.svcMutexWait) for svcMutexWait
    rt_cmsis.o(i.osPoolAlloc) refers to rt_cmsis.o(i.sysPoolAlloc) for sysPoolAlloc
    rt_cmsis.o(i.osPoolCAlloc) refers to rt_cmsis.o(i.rt_clr_box) for rt_clr_box
    rt_cmsis.o(i.osPoolCAlloc) refers to rt_cmsis.o(i.sysPoolAlloc) for sysPoolAlloc
    rt_cmsis.o(i.osPoolCreate) refers to rt_cmsis.o(i.svcPoolCreate) for svcPoolCreate
    rt_cmsis.o(i.osPoolCreate) refers to rt_cmsis.o(.data) for .data
    rt_cmsis.o(i.osPoolFree) refers to rt_cmsis.o(i.sysPoolFree) for sysPoolFree
    rt_cmsis.o(i.osSemaphoreCreate) refers to rt_cmsis.o(i.svcSemaphoreCreate) for svcSemaphoreCreate
    rt_cmsis.o(i.osSemaphoreCreate) refers to rt_cmsis.o(.data) for .data
    rt_cmsis.o(i.osSemaphoreDelete) refers to rt_cmsis.o(i.svcSemaphoreDelete) for svcSemaphoreDelete
    rt_cmsis.o(i.osSemaphoreRelease) refers to rt_cmsis.o(i.isrSemaphoreRelease) for isrSemaphoreRelease
    rt_cmsis.o(i.osSemaphoreRelease) refers to rt_cmsis.o(i.svcSemaphoreRelease) for svcSemaphoreRelease
    rt_cmsis.o(i.osSemaphoreWait) refers to rt_cmsis.o(i.svcSemaphoreWait) for svcSemaphoreWait
    rt_cmsis.o(i.osSignalClear) refers to rt_cmsis.o(i.svcSignalClear) for svcSignalClear
    rt_cmsis.o(i.osSignalSet) refers to rt_cmsis.o(i.isrSignalSet) for isrSignalSet
    rt_cmsis.o(i.osSignalSet) refers to rt_cmsis.o(i.svcSignalSet) for svcSignalSet
    rt_cmsis.o(i.osSignalWait) refers to rt_cmsis.o(i.svcSignalWait) for svcSignalWait
    rt_cmsis.o(i.osThreadCreate) refers to rt_cmsis.o(i.svcThreadCreate) for svcThreadCreate
    rt_cmsis.o(i.osThreadCreate) refers to rt_cmsis.o(.data) for .data
    rt_cmsis.o(i.osThreadExit) refers to rt_cmsis.o(i.svcThreadGetId) for svcThreadGetId
    rt_cmsis.o(i.osThreadExit) refers to rt_cmsis.o(i.svcThreadTerminate) for svcThreadTerminate
    rt_cmsis.o(i.osThreadGetId) refers to rt_cmsis.o(i.svcThreadGetId) for svcThreadGetId
    rt_cmsis.o(i.osThreadGetPriority) refers to rt_cmsis.o(i.svcThreadGetPriority) for svcThreadGetPriority
    rt_cmsis.o(i.osThreadSetPriority) refers to rt_cmsis.o(i.svcThreadSetPriority) for svcThreadSetPriority
    rt_cmsis.o(i.osThreadTerminate) refers to rt_cmsis.o(i.svcThreadTerminate) for svcThreadTerminate
    rt_cmsis.o(i.osThreadYield) refers to rt_cmsis.o(i.svcThreadYield) for svcThreadYield
    rt_cmsis.o(i.osTimerCall) refers to rt_cmsis.o(i.svcTimerCall) for svcTimerCall
    rt_cmsis.o(i.osTimerCreate) refers to rt_cmsis.o(i.svcTimerCreate) for svcTimerCreate
    rt_cmsis.o(i.osTimerCreate) refers to rt_cmsis.o(.data) for .data
    rt_cmsis.o(i.osTimerDelete) refers to rt_cmsis.o(i.svcTimerDelete) for svcTimerDelete
    rt_cmsis.o(i.osTimerStart) refers to rt_cmsis.o(i.svcTimerStart) for svcTimerStart
    rt_cmsis.o(i.osTimerStop) refers to rt_cmsis.o(i.svcTimerStop) for svcTimerStop
    rt_cmsis.o(i.osTimerThread) refers to rt_cmsis.o(i.osMessageGet) for osMessageGet
    rt_cmsis.o(i.osTimerThread) refers to rt_cmsis.o(i.osTimerCall) for osTimerCall
    rt_cmsis.o(i.osTimerThread) refers to rtx_conf_cm.o(.data) for osMessageQId_osTimerMessageQ
    rt_cmsis.o(i.os_resume) refers to rt_system.o(i.rt_resume) for rt_resume
    rt_cmsis.o(i.os_suspend) refers to rt_system.o(i.rt_suspend) for rt_suspend
    rt_cmsis.o(i.rt_ms2tick) refers to rtx_conf_cm.o(.constdata) for os_clockrate
    rt_cmsis.o(i.rt_timer_insert) refers to rt_cmsis.o(.data) for .data
    rt_cmsis.o(i.rt_timer_remove) refers to rt_cmsis.o(.data) for .data
    rt_cmsis.o(i.svcDelay) refers to rt_cmsis.o(i.rt_ms2tick) for rt_ms2tick
    rt_cmsis.o(i.svcDelay) refers to rt_time.o(i.rt_dly_wait) for rt_dly_wait
    rt_cmsis.o(i.svcKernelInitialize) refers to rt_memory.o(i.rt_init_mem) for rt_init_mem
    rt_cmsis.o(i.svcKernelInitialize) refers to rt_task.o(i.rt_sys_init) for rt_sys_init
    rt_cmsis.o(i.svcKernelInitialize) refers to rt_cmsis.o(i.svcMessageCreate) for svcMessageCreate
    rt_cmsis.o(i.svcKernelInitialize) refers to rt_cmsis.o(i.svcThreadCreate) for svcThreadCreate
    rt_cmsis.o(i.svcKernelInitialize) refers to rt_cmsis.o(.data) for .data
    rt_cmsis.o(i.svcKernelInitialize) refers to rtx_conf_cm.o(.bss) for os_stack_mem
    rt_cmsis.o(i.svcKernelInitialize) refers to rtx_conf_cm.o(.constdata) for os_stack_sz
    rt_cmsis.o(i.svcKernelInitialize) refers to rt_task.o(.data) for os_tsk
    rt_cmsis.o(i.svcKernelInitialize) refers to rtx_conf_cm.o(.constdata) for os_messageQ_def_osTimerMessageQ
    rt_cmsis.o(i.svcKernelInitialize) refers to rtx_conf_cm.o(.data) for osMessageQId_osTimerMessageQ
    rt_cmsis.o(i.svcKernelInitialize) refers to rtx_conf_cm.o(.constdata) for os_thread_def_osTimerThread
    rt_cmsis.o(i.svcKernelInitialize) refers to rtx_conf_cm.o(.data) for osThreadId_osTimerThread
    rt_cmsis.o(i.svcKernelRunning) refers to rt_cmsis.o(.data) for .data
    rt_cmsis.o(i.svcKernelStart) refers to rt_task.o(i.rt_tsk_prio) for rt_tsk_prio
    rt_cmsis.o(i.svcKernelStart) refers to rt_task.o(i.rt_sys_start) for rt_sys_start
    rt_cmsis.o(i.svcKernelStart) refers to rt_cmsis.o(.data) for .data
    rt_cmsis.o(i.svcKernelStart) refers to rt_task.o(.data) for os_tsk
    rt_cmsis.o(i.svcKernelSysTick) refers to rt_system.o(i.os_tick_val) for os_tick_val
    rt_cmsis.o(i.svcKernelSysTick) refers to rt_system.o(i.os_tick_ovf) for os_tick_ovf
    rt_cmsis.o(i.svcKernelSysTick) refers to rtx_conf_cm.o(.constdata) for os_trv
    rt_cmsis.o(i.svcKernelSysTick) refers to rt_time.o(.data) for os_time
    rt_cmsis.o(i.svcMailCreate) refers to rt_membox.o(i._init_box) for _init_box
    rt_cmsis.o(i.svcMailCreate) refers to rt_mailbox.o(i.rt_mbx_init) for rt_mbx_init
    rt_cmsis.o(i.svcMessageCreate) refers to rt_mailbox.o(i.rt_mbx_init) for rt_mbx_init
    rt_cmsis.o(i.svcMessageGet) refers to rt_cmsis.o(i.rt_ms2tick) for rt_ms2tick
    rt_cmsis.o(i.svcMessageGet) refers to rt_mailbox.o(i.rt_mbx_wait) for rt_mbx_wait
    rt_cmsis.o(i.svcMessagePut) refers to rt_cmsis.o(i.rt_ms2tick) for rt_ms2tick
    rt_cmsis.o(i.svcMessagePut) refers to rt_mailbox.o(i.rt_mbx_send) for rt_mbx_send
    rt_cmsis.o(i.svcMutexCreate) refers to rt_mutex.o(i.rt_mut_init) for rt_mut_init
    rt_cmsis.o(i.svcMutexDelete) refers to rt_cmsis.o(i.rt_id2obj) for rt_id2obj
    rt_cmsis.o(i.svcMutexDelete) refers to rt_mutex.o(i.rt_mut_delete) for rt_mut_delete
    rt_cmsis.o(i.svcMutexRelease) refers to rt_cmsis.o(i.rt_id2obj) for rt_id2obj
    rt_cmsis.o(i.svcMutexRelease) refers to rt_mutex.o(i.rt_mut_release) for rt_mut_release
    rt_cmsis.o(i.svcMutexWait) refers to rt_cmsis.o(i.rt_id2obj) for rt_id2obj
    rt_cmsis.o(i.svcMutexWait) refers to rt_cmsis.o(i.rt_ms2tick) for rt_ms2tick
    rt_cmsis.o(i.svcMutexWait) refers to rt_mutex.o(i.rt_mut_wait) for rt_mut_wait
    rt_cmsis.o(i.svcPoolCreate) refers to rt_membox.o(i._init_box) for _init_box
    rt_cmsis.o(i.svcSemaphoreCreate) refers to rt_semaphore.o(i.rt_sem_init) for rt_sem_init
    rt_cmsis.o(i.svcSemaphoreDelete) refers to rt_cmsis.o(i.rt_id2obj) for rt_id2obj
    rt_cmsis.o(i.svcSemaphoreDelete) refers to rt_semaphore.o(i.rt_sem_delete) for rt_sem_delete
    rt_cmsis.o(i.svcSemaphoreRelease) refers to rt_cmsis.o(i.rt_id2obj) for rt_id2obj
    rt_cmsis.o(i.svcSemaphoreRelease) refers to rt_semaphore.o(i.rt_sem_send) for rt_sem_send
    rt_cmsis.o(i.svcSemaphoreWait) refers to rt_cmsis.o(i.rt_id2obj) for rt_id2obj
    rt_cmsis.o(i.svcSemaphoreWait) refers to rt_cmsis.o(i.rt_ms2tick) for rt_ms2tick
    rt_cmsis.o(i.svcSemaphoreWait) refers to rt_semaphore.o(i.rt_sem_wait) for rt_sem_wait
    rt_cmsis.o(i.svcSignalClear) refers to rt_cmsis.o(i.rt_tid2ptcb) for rt_tid2ptcb
    rt_cmsis.o(i.svcSignalClear) refers to rt_event.o(i.rt_evt_clr) for rt_evt_clr
    rt_cmsis.o(i.svcSignalSet) refers to rt_cmsis.o(i.rt_tid2ptcb) for rt_tid2ptcb
    rt_cmsis.o(i.svcSignalSet) refers to rt_event.o(i.rt_evt_set) for rt_evt_set
    rt_cmsis.o(i.svcSignalWait) refers to rt_cmsis.o(i.rt_ms2tick) for rt_ms2tick
    rt_cmsis.o(i.svcSignalWait) refers to rt_event.o(i.rt_evt_wait) for rt_evt_wait
    rt_cmsis.o(i.svcSignalWait) refers to rt_task.o(.data) for os_tsk
    rt_cmsis.o(i.svcThreadCreate) refers to rt_memory.o(i.rt_alloc_mem) for rt_alloc_mem
    rt_cmsis.o(i.svcThreadCreate) refers to rt_task.o(i.rt_tsk_create) for rt_tsk_create
    rt_cmsis.o(i.svcThreadCreate) refers to rt_memory.o(i.rt_free_mem) for rt_free_mem
    rt_cmsis.o(i.svcThreadCreate) refers to rtx_conf_cm.o(.bss) for os_stack_mem
    rt_cmsis.o(i.svcThreadCreate) refers to rtx_conf_cm.o(.bss) for os_active_TCB
    rt_cmsis.o(i.svcThreadCreate) refers to rt_cmsis.o(i.osThreadExit) for osThreadExit
    rt_cmsis.o(i.svcThreadGetId) refers to rt_task.o(i.rt_tsk_self) for rt_tsk_self
    rt_cmsis.o(i.svcThreadGetId) refers to rtx_conf_cm.o(.bss) for os_active_TCB
    rt_cmsis.o(i.svcThreadGetPriority) refers to rt_cmsis.o(i.rt_tid2ptcb) for rt_tid2ptcb
    rt_cmsis.o(i.svcThreadSetPriority) refers to rt_cmsis.o(i.rt_tid2ptcb) for rt_tid2ptcb
    rt_cmsis.o(i.svcThreadSetPriority) refers to rt_task.o(i.rt_tsk_prio) for rt_tsk_prio
    rt_cmsis.o(i.svcThreadTerminate) refers to rt_cmsis.o(i.rt_tid2ptcb) for rt_tid2ptcb
    rt_cmsis.o(i.svcThreadTerminate) refers to rt_task.o(i.rt_tsk_delete) for rt_tsk_delete
    rt_cmsis.o(i.svcThreadTerminate) refers to rt_memory.o(i.rt_free_mem) for rt_free_mem
    rt_cmsis.o(i.svcThreadTerminate) refers to rtx_conf_cm.o(.bss) for os_stack_mem
    rt_cmsis.o(i.svcThreadYield) refers to rt_task.o(i.rt_tsk_pass) for rt_tsk_pass
    rt_cmsis.o(i.svcTimerCall) refers to rt_cmsis.o(i.rt_id2obj) for rt_id2obj
    rt_cmsis.o(i.svcTimerCreate) refers to rtx_conf_cm.o(.data) for osThreadId_osTimerThread
    rt_cmsis.o(i.svcTimerDelete) refers to rt_cmsis.o(i.rt_id2obj) for rt_id2obj
    rt_cmsis.o(i.svcTimerDelete) refers to rt_cmsis.o(i.rt_timer_remove) for rt_timer_remove
    rt_cmsis.o(i.svcTimerStart) refers to rt_cmsis.o(i.rt_id2obj) for rt_id2obj
    rt_cmsis.o(i.svcTimerStart) refers to lludivv7m.o(.text) for __aeabi_uldivmod
    rt_cmsis.o(i.svcTimerStart) refers to rt_cmsis.o(i.rt_timer_remove) for rt_timer_remove
    rt_cmsis.o(i.svcTimerStart) refers to rt_cmsis.o(i.rt_timer_insert) for rt_timer_insert
    rt_cmsis.o(i.svcTimerStart) refers to rtx_conf_cm.o(.constdata) for os_clockrate
    rt_cmsis.o(i.svcTimerStop) refers to rt_cmsis.o(i.rt_id2obj) for rt_id2obj
    rt_cmsis.o(i.svcTimerStop) refers to rt_cmsis.o(i.rt_timer_remove) for rt_timer_remove
    rt_cmsis.o(i.sysMailAlloc) refers to rt_membox.o(i.rt_alloc_box) for rt_alloc_box
    rt_cmsis.o(i.sysMailAlloc) refers to rt_list.o(i.rt_put_prio) for rt_put_prio
    rt_cmsis.o(i.sysMailAlloc) refers to rt_cmsis.o(i.rt_ms2tick) for rt_ms2tick
    rt_cmsis.o(i.sysMailAlloc) refers to rt_task.o(i.rt_block) for rt_block
    rt_cmsis.o(i.sysMailAlloc) refers to rt_task.o(.data) for os_tsk
    rt_cmsis.o(i.sysMailFree) refers to rt_membox.o(i.rt_free_box) for rt_free_box
    rt_cmsis.o(i.sysMailFree) refers to rt_list.o(i.rt_psq_enq) for rt_psq_enq
    rt_cmsis.o(i.sysMailFree) refers to rt_system.o(i.rt_psh_req) for rt_psh_req
    rt_cmsis.o(i.sysMailFree) refers to rt_membox.o(i.rt_alloc_box) for rt_alloc_box
    rt_cmsis.o(i.sysMailFree) refers to rt_list.o(i.rt_get_first) for rt_get_first
    rt_cmsis.o(i.sysMailFree) refers to hal_cm.o(i.rt_ret_val) for rt_ret_val
    rt_cmsis.o(i.sysMailFree) refers to rt_list.o(i.rt_rmv_dly) for rt_rmv_dly
    rt_cmsis.o(i.sysMailFree) refers to rt_task.o(i.rt_dispatch) for rt_dispatch
    rt_cmsis.o(i.sysPoolAlloc) refers to rt_membox.o(i.rt_alloc_box) for rt_alloc_box
    rt_cmsis.o(i.sysPoolFree) refers to rt_membox.o(i.rt_free_box) for rt_free_box
    rt_cmsis.o(i.sysTimerTick) refers to rt_cmsis.o(i.isrMessagePut) for isrMessagePut
    rt_cmsis.o(i.sysTimerTick) refers to rtx_conf_cm.o(.text) for os_error
    rt_cmsis.o(i.sysTimerTick) refers to rt_cmsis.o(i.rt_timer_insert) for rt_timer_insert
    rt_cmsis.o(i.sysTimerTick) refers to rt_cmsis.o(.data) for .data
    rt_cmsis.o(i.sysTimerTick) refers to rtx_conf_cm.o(.data) for osMessageQId_osTimerMessageQ
    rt_cmsis.o(i.sysUserTimerUpdate) refers to rt_cmsis.o(i.sysTimerTick) for sysTimerTick
    rt_cmsis.o(i.sysUserTimerUpdate) refers to rt_cmsis.o(.data) for .data
    rt_cmsis.o(i.sysUserTimerWakeupTime) refers to rt_cmsis.o(.data) for .data
    rt_task.o(i.rt_block) refers to rt_list.o(i.rt_put_dly) for rt_put_dly
    rt_task.o(i.rt_block) refers to rt_list.o(i.rt_get_first) for rt_get_first
    rt_task.o(i.rt_block) refers to rt_task.o(i.rt_switch_req) for rt_switch_req
    rt_task.o(i.rt_block) refers to rt_task.o(.data) for .data
    rt_task.o(i.rt_block) refers to rt_list.o(.bss) for os_rdy
    rt_task.o(i.rt_dispatch) refers to rt_list.o(i.rt_put_rdy_first) for rt_put_rdy_first
    rt_task.o(i.rt_dispatch) refers to rt_task.o(i.rt_switch_req) for rt_switch_req
    rt_task.o(i.rt_dispatch) refers to rt_list.o(i.rt_get_first) for rt_get_first
    rt_task.o(i.rt_dispatch) refers to rt_list.o(i.rt_put_prio) for rt_put_prio
    rt_task.o(i.rt_dispatch) refers to rt_task.o(.data) for .data
    rt_task.o(i.rt_dispatch) refers to rt_list.o(.bss) for os_rdy
    rt_task.o(i.rt_init_context) refers to rt_membox.o(i.rt_alloc_box) for rt_alloc_box
    rt_task.o(i.rt_init_context) refers to hal_cm.o(i.rt_init_stack) for rt_init_stack
    rt_task.o(i.rt_init_context) refers to rtx_conf_cm.o(.bss) for mp_stk
    rt_task.o(i.rt_switch_req) refers to hal_cm.o(i.dbg_task_switch) for dbg_task_switch
    rt_task.o(i.rt_switch_req) refers to rt_task.o(.data) for .data
    rt_task.o(i.rt_switch_req) refers to hal_cm.o(.data) for dbg_msg
    rt_task.o(i.rt_sys_init) refers to hal_cm.o(i.dbg_init) for dbg_init
    rt_task.o(i.rt_sys_init) refers to rt_membox.o(i._init_box) for _init_box
    rt_task.o(i.rt_sys_init) refers to rt_task.o(i.rt_init_context) for rt_init_context
    rt_task.o(i.rt_sys_init) refers to rt_robin.o(i.rt_init_robin) for rt_init_robin
    rt_task.o(i.rt_sys_init) refers to rtx_conf_cm.o(.bss) for os_active_TCB
    rt_task.o(i.rt_sys_init) refers to rtx_conf_cm.o(.constdata) for os_maxtaskrun
    rt_task.o(i.rt_sys_init) refers to rtx_conf_cm.o(.constdata) for mp_tcb_size
    rt_task.o(i.rt_sys_init) refers to rtx_conf_cm.o(.bss) for mp_tcb
    rt_task.o(i.rt_sys_init) refers to rtx_conf_cm.o(.constdata) for os_stackinfo
    rt_task.o(i.rt_sys_init) refers to rtx_conf_cm.o(.constdata) for mp_stk_size
    rt_task.o(i.rt_sys_init) refers to rtx_conf_cm.o(.bss) for mp_stk
    rt_task.o(i.rt_sys_init) refers to rtx_conf_cm.o(.constdata) for mp_tmr_size
    rt_task.o(i.rt_sys_init) refers to rtx_conf_cm.o(.data) for m_tmr
    rt_task.o(i.rt_sys_init) refers to rt_task.o(.bss) for .bss
    rt_task.o(i.rt_sys_init) refers to rtx_conf_cm.o(.text) for os_idle_demon
    rt_task.o(i.rt_sys_init) refers to rt_list.o(.bss) for os_rdy
    rt_task.o(i.rt_sys_init) refers to rt_task.o(.data) for .data
    rt_task.o(i.rt_sys_init) refers to rtx_conf_cm.o(.bss) for os_fifo
    rt_task.o(i.rt_sys_init) refers to rtx_conf_cm.o(.constdata) for os_fifo_size
    rt_task.o(i.rt_sys_start) refers to rt_system.o(i.os_tick_init) for os_tick_init
    rt_task.o(i.rt_sys_start) refers to rt_system.o(.data) for os_tick_irqn
    rt_task.o(i.rt_tsk_create) refers to rt_membox.o(i.rt_alloc_box) for rt_alloc_box
    rt_task.o(i.rt_tsk_create) refers to rt_task.o(i.rt_init_context) for rt_init_context
    rt_task.o(i.rt_tsk_create) refers to hal_cm.o(i.dbg_task_notify) for dbg_task_notify
    rt_task.o(i.rt_tsk_create) refers to rt_task.o(i.rt_dispatch) for rt_dispatch
    rt_task.o(i.rt_tsk_create) refers to rtx_conf_cm.o(.bss) for mp_tcb
    rt_task.o(i.rt_tsk_create) refers to rtx_conf_cm.o(.bss) for os_active_TCB
    rt_task.o(i.rt_tsk_create) refers to rtx_conf_cm.o(.constdata) for os_maxtaskrun
    rt_task.o(i.rt_tsk_create) refers to hal_cm.o(.data) for dbg_msg
    rt_task.o(i.rt_tsk_delete) refers to hal_cm4.o(.emb_text) for rt_get_PSP
    rt_task.o(i.rt_tsk_delete) refers to rt_system.o(i.rt_stk_check) for rt_stk_check
    rt_task.o(i.rt_tsk_delete) refers to rt_list.o(i.rt_get_first) for rt_get_first
    rt_task.o(i.rt_tsk_delete) refers to hal_cm.o(i.rt_ret_val) for rt_ret_val
    rt_task.o(i.rt_tsk_delete) refers to rt_list.o(i.rt_rmv_dly) for rt_rmv_dly
    rt_task.o(i.rt_tsk_delete) refers to rt_list.o(i.rt_put_prio) for rt_put_prio
    rt_task.o(i.rt_tsk_delete) refers to rt_membox.o(i.rt_free_box) for rt_free_box
    rt_task.o(i.rt_tsk_delete) refers to hal_cm.o(i.dbg_task_notify) for dbg_task_notify
    rt_task.o(i.rt_tsk_delete) refers to rt_list.o(i.rt_rmv_list) for rt_rmv_list
    rt_task.o(i.rt_tsk_delete) refers to rt_task.o(i.rt_dispatch) for rt_dispatch
    rt_task.o(i.rt_tsk_delete) refers to hal_cm.o(.data) for dbg_msg
    rt_task.o(i.rt_tsk_delete) refers to rtx_conf_cm.o(.bss) for os_active_TCB
    rt_task.o(i.rt_tsk_delete) refers to rt_task.o(.data) for .data
    rt_task.o(i.rt_tsk_delete) refers to rt_list.o(.bss) for os_rdy
    rt_task.o(i.rt_tsk_delete) refers to rtx_conf_cm.o(.bss) for mp_stk
    rt_task.o(i.rt_tsk_delete) refers to rtx_conf_cm.o(.bss) for mp_tcb
    rt_task.o(i.rt_tsk_delete) refers to rtx_conf_cm.o(.constdata) for os_maxtaskrun
    rt_task.o(i.rt_tsk_pass) refers to rt_list.o(i.rt_get_same_rdy_prio) for rt_get_same_rdy_prio
    rt_task.o(i.rt_tsk_pass) refers to rt_list.o(i.rt_put_prio) for rt_put_prio
    rt_task.o(i.rt_tsk_pass) refers to rt_task.o(i.rt_switch_req) for rt_switch_req
    rt_task.o(i.rt_tsk_pass) refers to rt_task.o(.data) for .data
    rt_task.o(i.rt_tsk_pass) refers to rt_list.o(.bss) for os_rdy
    rt_task.o(i.rt_tsk_prio) refers to rt_list.o(i.rt_put_prio) for rt_put_prio
    rt_task.o(i.rt_tsk_prio) refers to rt_list.o(i.rt_resort_prio) for rt_resort_prio
    rt_task.o(i.rt_tsk_prio) refers to rt_list.o(i.rt_get_first) for rt_get_first
    rt_task.o(i.rt_tsk_prio) refers to rt_task.o(i.rt_dispatch) for rt_dispatch
    rt_task.o(i.rt_tsk_prio) refers to rt_task.o(.data) for .data
    rt_task.o(i.rt_tsk_prio) refers to rtx_conf_cm.o(.constdata) for os_maxtaskrun
    rt_task.o(i.rt_tsk_prio) refers to rtx_conf_cm.o(.bss) for os_active_TCB
    rt_task.o(i.rt_tsk_prio) refers to rt_list.o(.bss) for os_rdy
    rt_task.o(i.rt_tsk_self) refers to rt_task.o(.data) for .data
    rt_mutex.o(i.rt_mut_delete) refers to rt_list.o(i.rt_resort_prio) for rt_resort_prio
    rt_mutex.o(i.rt_mut_delete) refers to rt_list.o(i.rt_get_first) for rt_get_first
    rt_mutex.o(i.rt_mut_delete) refers to hal_cm.o(i.rt_ret_val) for rt_ret_val
    rt_mutex.o(i.rt_mut_delete) refers to rt_list.o(i.rt_rmv_dly) for rt_rmv_dly
    rt_mutex.o(i.rt_mut_delete) refers to rt_list.o(i.rt_put_prio) for rt_put_prio
    rt_mutex.o(i.rt_mut_delete) refers to rt_task.o(i.rt_dispatch) for rt_dispatch
    rt_mutex.o(i.rt_mut_delete) refers to rt_task.o(.data) for os_tsk
    rt_mutex.o(i.rt_mut_delete) refers to rt_list.o(.bss) for os_rdy
    rt_mutex.o(i.rt_mut_release) refers to rt_list.o(i.rt_get_first) for rt_get_first
    rt_mutex.o(i.rt_mut_release) refers to hal_cm.o(i.rt_ret_val) for rt_ret_val
    rt_mutex.o(i.rt_mut_release) refers to rt_list.o(i.rt_rmv_dly) for rt_rmv_dly
    rt_mutex.o(i.rt_mut_release) refers to rt_list.o(i.rt_put_prio) for rt_put_prio
    rt_mutex.o(i.rt_mut_release) refers to rt_task.o(i.rt_dispatch) for rt_dispatch
    rt_mutex.o(i.rt_mut_release) refers to rt_task.o(.data) for os_tsk
    rt_mutex.o(i.rt_mut_release) refers to rt_list.o(.bss) for os_rdy
    rt_mutex.o(i.rt_mut_wait) refers to rt_list.o(i.rt_resort_prio) for rt_resort_prio
    rt_mutex.o(i.rt_mut_wait) refers to rt_list.o(i.rt_put_prio) for rt_put_prio
    rt_mutex.o(i.rt_mut_wait) refers to rt_task.o(i.rt_block) for rt_block
    rt_mutex.o(i.rt_mut_wait) refers to rt_task.o(.data) for os_tsk
    interrupt.o(i.IntDisable) refers to interrupt.o(.constdata) for .constdata
    interrupt.o(i.IntEnable) refers to interrupt.o(.constdata) for .constdata
    interrupt.o(i.IntIsEnabled) refers to interrupt.o(.constdata) for .constdata
    interrupt.o(i.IntMasterDisable) refers to cpu.o(.emb_text) for CPUcpsid
    interrupt.o(i.IntMasterEnable) refers to cpu.o(.emb_text) for CPUcpsie
    interrupt.o(i.IntPendClear) refers to interrupt.o(.constdata) for .constdata
    interrupt.o(i.IntPendSet) refers to interrupt.o(.constdata) for .constdata
    interrupt.o(i.IntPriorityGet) refers to interrupt.o(.constdata) for .constdata
    interrupt.o(i.IntPriorityGroupingGet) refers to interrupt.o(.constdata) for .constdata
    interrupt.o(i.IntPriorityGroupingSet) refers to interrupt.o(.constdata) for .constdata
    interrupt.o(i.IntPriorityMaskGet) refers to cpu.o(.emb_text) for CPUbasepriGet
    interrupt.o(i.IntPriorityMaskSet) refers to cpu.o(.emb_text) for CPUbasepriSet
    interrupt.o(i.IntPrioritySet) refers to interrupt.o(.constdata) for .constdata
    interrupt.o(i.IntRegister) refers to interrupt.o(vtable) for vtable
    interrupt.o(i.IntUnregister) refers to interrupt.o(i._IntDefaultHandler) for _IntDefaultHandler
    interrupt.o(i.IntUnregister) refers to interrupt.o(vtable) for vtable
    charmap.o(i.GrMapISO8859_10_Unicode) refers to charmap.o(.constdata) for .constdata
    charmap.o(i.GrMapISO8859_13_Unicode) refers to charmap.o(.constdata) for .constdata
    charmap.o(i.GrMapISO8859_14_Unicode) refers to charmap.o(.constdata) for .constdata
    charmap.o(i.GrMapISO8859_16_Unicode) refers to charmap.o(.constdata) for .constdata
    charmap.o(i.GrMapISO8859_2_Unicode) refers to charmap.o(.constdata) for .constdata
    charmap.o(i.GrMapISO8859_3_Unicode) refers to charmap.o(.constdata) for .constdata
    charmap.o(i.GrMapISO8859_4_Unicode) refers to charmap.o(.constdata) for .constdata
    charmap.o(i.GrMapISO8859_7_Unicode) refers to charmap.o(.constdata) for .constdata
    charmap.o(i.GrMapUTF16BE_Unicode) refers to charmap.o(i.GrMapUTF16_Unicode) for GrMapUTF16_Unicode
    charmap.o(i.GrMapUTF16LE_Unicode) refers to charmap.o(i.GrMapUTF16_Unicode) for GrMapUTF16_Unicode
    charmap.o(i.GrMapWIN1250_Unicode) refers to charmap.o(.constdata) for .constdata
    charmap.o(i.GrMapWIN1251_Unicode) refers to charmap.o(.constdata) for .constdata
    charmap.o(i.GrMapWIN1252_Unicode) refers to charmap.o(.constdata) for .constdata
    charmap.o(i.GrMapWIN1253_Unicode) refers to charmap.o(.constdata) for .constdata
    charmap.o(i.GrMapWIN1254_Unicode) refers to charmap.o(.constdata) for .constdata
    rt_system.o(i.os_tick_init) refers to rtx_conf_cm.o(.constdata) for os_trv
    rt_system.o(i.os_tick_val) refers to rtx_conf_cm.o(.constdata) for os_trv
    rt_system.o(i.rt_pop_req) refers to rt_list.o(i.rt_put_rdy_first) for rt_put_rdy_first
    rt_system.o(i.rt_pop_req) refers to rt_semaphore.o(i.rt_sem_psh) for rt_sem_psh
    rt_system.o(i.rt_pop_req) refers to rt_list.o(i.rt_get_first) for rt_get_first
    rt_system.o(i.rt_pop_req) refers to rt_task.o(i.rt_switch_req) for rt_switch_req
    rt_system.o(i.rt_pop_req) refers to rt_event.o(i.rt_evt_psh) for rt_evt_psh
    rt_system.o(i.rt_pop_req) refers to rt_mailbox.o(i.rt_mbx_psh) for rt_mbx_psh
    rt_system.o(i.rt_pop_req) refers to rt_task.o(.data) for os_tsk
    rt_system.o(i.rt_pop_req) refers to rtx_conf_cm.o(.bss) for os_fifo
    rt_system.o(i.rt_pop_req) refers to rt_list.o(.bss) for os_rdy
    rt_system.o(i.rt_psh_req) refers to rt_system.o(.data) for .data
    rt_system.o(i.rt_resume) refers to rt_list.o(i.rt_put_rdy_first) for rt_put_rdy_first
    rt_system.o(i.rt_resume) refers to rt_list.o(i.rt_dec_dly) for rt_dec_dly
    rt_system.o(i.rt_resume) refers to rt_cmsis.o(i.sysUserTimerUpdate) for sysUserTimerUpdate
    rt_system.o(i.rt_resume) refers to rt_list.o(i.rt_get_first) for rt_get_first
    rt_system.o(i.rt_resume) refers to rt_task.o(i.rt_switch_req) for rt_switch_req
    rt_system.o(i.rt_resume) refers to rt_system.o(i.rt_tsk_unlock) for rt_tsk_unlock
    rt_system.o(i.rt_resume) refers to rt_task.o(.data) for os_tsk
    rt_system.o(i.rt_resume) refers to rt_robin.o(.data) for os_robin
    rt_system.o(i.rt_resume) refers to rt_list.o(.bss) for os_dly
    rt_system.o(i.rt_resume) refers to rt_time.o(.data) for os_time
    rt_system.o(i.rt_stk_check) refers to rtx_conf_cm.o(.text) for os_error
    rt_system.o(i.rt_stk_check) refers to rt_task.o(.data) for os_tsk
    rt_system.o(i.rt_suspend) refers to rt_system.o(i.rt_tsk_lock) for rt_tsk_lock
    rt_system.o(i.rt_suspend) refers to rt_cmsis.o(i.sysUserTimerWakeupTime) for sysUserTimerWakeupTime
    rt_system.o(i.rt_suspend) refers to rt_list.o(.bss) for os_dly
    rt_system.o(i.rt_systick) refers to rt_list.o(i.rt_put_rdy_first) for rt_put_rdy_first
    rt_system.o(i.rt_systick) refers to rt_robin.o(i.rt_chk_robin) for rt_chk_robin
    rt_system.o(i.rt_systick) refers to rt_list.o(i.rt_dec_dly) for rt_dec_dly
    rt_system.o(i.rt_systick) refers to rt_cmsis.o(i.sysTimerTick) for sysTimerTick
    rt_system.o(i.rt_systick) refers to rt_list.o(i.rt_get_first) for rt_get_first
    rt_system.o(i.rt_systick) refers to rt_task.o(i.rt_switch_req) for rt_switch_req
    rt_system.o(i.rt_systick) refers to rt_task.o(.data) for os_tsk
    rt_system.o(i.rt_systick) refers to rt_time.o(.data) for os_time
    rt_system.o(i.rt_systick) refers to rt_list.o(.bss) for os_rdy
    rt_system.o(i.rt_tsk_lock) refers to rt_system.o(.data) for .data
    rt_system.o(i.rt_tsk_unlock) refers to rt_system.o(.data) for .data
    rt_event.o(i.isr_evt_set) refers to rt_list.o(i.rt_psq_enq) for rt_psq_enq
    rt_event.o(i.isr_evt_set) refers to rt_system.o(i.rt_psh_req) for rt_psh_req
    rt_event.o(i.isr_evt_set) refers to rtx_conf_cm.o(.bss) for os_active_TCB
    rt_event.o(i.rt_evt_clr) refers to rtx_conf_cm.o(.bss) for os_active_TCB
    rt_event.o(i.rt_evt_get) refers to rt_task.o(.data) for os_tsk
    rt_event.o(i.rt_evt_psh) refers to rt_list.o(i.rt_rmv_dly) for rt_rmv_dly
    rt_event.o(i.rt_evt_psh) refers to hal_cm.o(i.rt_ret_val2) for rt_ret_val2
    rt_event.o(i.rt_evt_psh) refers to rt_list.o(i.rt_put_prio) for rt_put_prio
    rt_event.o(i.rt_evt_psh) refers to rt_list.o(.bss) for os_rdy
    rt_event.o(i.rt_evt_set) refers to rt_list.o(i.rt_rmv_dly) for rt_rmv_dly
    rt_event.o(i.rt_evt_set) refers to hal_cm.o(i.rt_ret_val2) for rt_ret_val2
    rt_event.o(i.rt_evt_set) refers to rt_task.o(i.rt_dispatch) for rt_dispatch
    rt_event.o(i.rt_evt_set) refers to rtx_conf_cm.o(.bss) for os_active_TCB
    rt_event.o(i.rt_evt_wait) refers to rt_task.o(i.rt_block) for rt_block
    rt_event.o(i.rt_evt_wait) refers to rt_task.o(.data) for os_tsk
    rt_list.o(i.rt_dec_dly) refers to rt_list.o(i.rt_put_prio) for rt_put_prio
    rt_list.o(i.rt_dec_dly) refers to rt_list.o(.bss) for .bss
    rt_list.o(i.rt_dec_dly) refers to rt_time.o(.data) for os_time
    rt_list.o(i.rt_get_same_rdy_prio) refers to rt_list.o(.bss) for .bss
    rt_list.o(i.rt_get_same_rdy_prio) refers to rt_task.o(.data) for os_tsk
    rt_list.o(i.rt_psq_enq) refers to rtx_conf_cm.o(.text) for os_error
    rt_list.o(i.rt_psq_enq) refers to rtx_conf_cm.o(.bss) for os_fifo
    rt_list.o(i.rt_put_dly) refers to rt_list.o(.bss) for .bss
    rt_list.o(i.rt_put_rdy_first) refers to rt_list.o(.bss) for .bss
    rt_list.o(i.rt_resort_prio) refers to rt_list.o(i.rt_rmv_list) for rt_rmv_list
    rt_list.o(i.rt_resort_prio) refers to rt_list.o(i.rt_put_prio) for rt_put_prio
    rt_list.o(i.rt_resort_prio) refers to rt_list.o(.bss) for .bss
    rt_list.o(i.rt_rmv_list) refers to rt_list.o(.bss) for .bss
    rt_mailbox.o(i.isr_mbx_receive) refers to rt_list.o(i.rt_psq_enq) for rt_psq_enq
    rt_mailbox.o(i.isr_mbx_receive) refers to rt_system.o(i.rt_psh_req) for rt_psh_req
    rt_mailbox.o(i.isr_mbx_send) refers to rt_list.o(i.rt_psq_enq) for rt_psq_enq
    rt_mailbox.o(i.isr_mbx_send) refers to rt_system.o(i.rt_psh_req) for rt_psh_req
    rt_mailbox.o(i.rt_mbx_psh) refers to rt_membox.o(i.rt_alloc_box) for rt_alloc_box
    rt_mailbox.o(i.rt_mbx_psh) refers to rt_list.o(i.rt_get_first) for rt_get_first
    rt_mailbox.o(i.rt_mbx_psh) refers to hal_cm.o(i.rt_ret_val) for rt_ret_val
    rt_mailbox.o(i.rt_mbx_psh) refers to rt_list.o(i.rt_rmv_dly) for rt_rmv_dly
    rt_mailbox.o(i.rt_mbx_psh) refers to rt_list.o(i.rt_put_prio) for rt_put_prio
    rt_mailbox.o(i.rt_mbx_psh) refers to hal_cm.o(i.rt_ret_val2) for rt_ret_val2
    rt_mailbox.o(i.rt_mbx_psh) refers to rtx_conf_cm.o(.text) for os_error
    rt_mailbox.o(i.rt_mbx_psh) refers to rt_list.o(.bss) for os_rdy
    rt_mailbox.o(i.rt_mbx_send) refers to rt_list.o(i.rt_put_prio) for rt_put_prio
    rt_mailbox.o(i.rt_mbx_send) refers to rt_list.o(i.rt_get_first) for rt_get_first
    rt_mailbox.o(i.rt_mbx_send) refers to hal_cm.o(i.rt_ret_val2) for rt_ret_val2
    rt_mailbox.o(i.rt_mbx_send) refers to rt_list.o(i.rt_rmv_dly) for rt_rmv_dly
    rt_mailbox.o(i.rt_mbx_send) refers to rt_task.o(i.rt_dispatch) for rt_dispatch
    rt_mailbox.o(i.rt_mbx_send) refers to rt_task.o(i.rt_block) for rt_block
    rt_mailbox.o(i.rt_mbx_send) refers to rt_task.o(.data) for os_tsk
    rt_mailbox.o(i.rt_mbx_wait) refers to rt_list.o(i.rt_get_first) for rt_get_first
    rt_mailbox.o(i.rt_mbx_wait) refers to hal_cm.o(i.rt_ret_val) for rt_ret_val
    rt_mailbox.o(i.rt_mbx_wait) refers to rt_list.o(i.rt_rmv_dly) for rt_rmv_dly
    rt_mailbox.o(i.rt_mbx_wait) refers to rt_task.o(i.rt_dispatch) for rt_dispatch
    rt_mailbox.o(i.rt_mbx_wait) refers to rt_list.o(i.rt_put_prio) for rt_put_prio
    rt_mailbox.o(i.rt_mbx_wait) refers to rt_task.o(i.rt_block) for rt_block
    rt_mailbox.o(i.rt_mbx_wait) refers to rt_task.o(.data) for os_tsk
    rt_semaphore.o(i.isr_sem_send) refers to rt_list.o(i.rt_psq_enq) for rt_psq_enq
    rt_semaphore.o(i.isr_sem_send) refers to rt_system.o(i.rt_psh_req) for rt_psh_req
    rt_semaphore.o(i.rt_sem_delete) refers to rt_list.o(i.rt_get_first) for rt_get_first
    rt_semaphore.o(i.rt_sem_delete) refers to hal_cm.o(i.rt_ret_val) for rt_ret_val
    rt_semaphore.o(i.rt_sem_delete) refers to rt_list.o(i.rt_rmv_dly) for rt_rmv_dly
    rt_semaphore.o(i.rt_sem_delete) refers to rt_list.o(i.rt_put_prio) for rt_put_prio
    rt_semaphore.o(i.rt_sem_delete) refers to rt_task.o(i.rt_dispatch) for rt_dispatch
    rt_semaphore.o(i.rt_sem_delete) refers to rt_list.o(.bss) for os_rdy
    rt_semaphore.o(i.rt_sem_delete) refers to rt_task.o(.data) for os_tsk
    rt_semaphore.o(i.rt_sem_psh) refers to rt_list.o(i.rt_get_first) for rt_get_first
    rt_semaphore.o(i.rt_sem_psh) refers to rt_list.o(i.rt_rmv_dly) for rt_rmv_dly
    rt_semaphore.o(i.rt_sem_psh) refers to hal_cm.o(i.rt_ret_val) for rt_ret_val
    rt_semaphore.o(i.rt_sem_psh) refers to rt_list.o(i.rt_put_prio) for rt_put_prio
    rt_semaphore.o(i.rt_sem_psh) refers to rt_list.o(.bss) for os_rdy
    rt_semaphore.o(i.rt_sem_send) refers to rt_list.o(i.rt_get_first) for rt_get_first
    rt_semaphore.o(i.rt_sem_send) refers to hal_cm.o(i.rt_ret_val) for rt_ret_val
    rt_semaphore.o(i.rt_sem_send) refers to rt_list.o(i.rt_rmv_dly) for rt_rmv_dly
    rt_semaphore.o(i.rt_sem_send) refers to rt_task.o(i.rt_dispatch) for rt_dispatch
    rt_semaphore.o(i.rt_sem_wait) refers to rt_list.o(i.rt_put_prio) for rt_put_prio
    rt_semaphore.o(i.rt_sem_wait) refers to rt_task.o(i.rt_block) for rt_block
    rt_semaphore.o(i.rt_sem_wait) refers to rt_task.o(.data) for os_tsk
    rt_time.o(i.rt_dly_wait) refers to rt_task.o(i.rt_block) for rt_block
    rt_time.o(i.rt_itv_set) refers to rt_task.o(.data) for os_tsk
    rt_time.o(i.rt_itv_set) refers to rt_time.o(.data) for .data
    rt_time.o(i.rt_itv_wait) refers to rt_task.o(i.rt_block) for rt_block
    rt_time.o(i.rt_itv_wait) refers to rt_task.o(.data) for os_tsk
    rt_time.o(i.rt_itv_wait) refers to rt_time.o(.data) for .data
    rt_time.o(i.rt_time_get) refers to rt_time.o(.data) for .data
    rt_robin.o(i.rt_chk_robin) refers to rt_list.o(i.rt_get_first) for rt_get_first
    rt_robin.o(i.rt_chk_robin) refers to rt_list.o(i.rt_put_prio) for rt_put_prio
    rt_robin.o(i.rt_chk_robin) refers to rt_robin.o(.data) for .data
    rt_robin.o(i.rt_chk_robin) refers to rt_list.o(.bss) for os_rdy
    rt_robin.o(i.rt_chk_robin) refers to rt_time.o(.data) for os_time
    rt_robin.o(i.rt_init_robin) refers to rt_robin.o(.data) for .data
    rt_robin.o(i.rt_init_robin) refers to rtx_conf_cm.o(.constdata) for os_rrobin
    rt_membox.o(i._calloc_box) refers to hal_cm4.o(.emb_text) for _alloc_box
    hal_cm.o(i.dbg_init) refers to hal_cm.o(.data) for .data
    hal_cm.o(i.rt_init_stack) refers to rtx_conf_cm.o(.constdata) for os_stackinfo
    hal_cm.o(i.rt_ret_val) refers to hal_cm.o(i.rt_ret_regs) for rt_ret_regs
    hal_cm.o(i.rt_ret_val2) refers to hal_cm.o(i.rt_ret_regs) for rt_ret_regs
    hal_cm4.o(.emb_text) refers to rtx_conf_cm.o(.constdata) for os_flags
    hal_cm4.o(.emb_text) refers to rt_membox.o(i.rt_alloc_box) for rt_alloc_box
    hal_cm4.o(.emb_text) refers to rt_membox.o(i.rt_free_box) for rt_free_box
    hal_cm4.o(.emb_text) refers to rt_system.o(i.rt_stk_check) for rt_stk_check
    hal_cm4.o(.emb_text) refers to rt_task.o(.data) for os_tsk
    hal_cm4.o(.emb_text) refers to svc_table.o(SVC_TABLE) for SVC_Count
    hal_cm4.o(.emb_text) refers to rt_system.o(i.rt_pop_req) for rt_pop_req
    hal_cm4.o(.emb_text) refers to rt_system.o(i.rt_systick) for rt_systick
    hal_cm4.o(.emb_text) refers to rt_system.o(i.os_tick_irqack) for os_tick_irqack
    libspace.o(.text) refers to libspace.o(.bss) for __libspace_start
    llsdiv.o(.text) refers to lludivv7m.o(.text) for __aeabi_uldivmod
    exit.o(.text) refers to rtexit.o(.ARM.Collect$$rtexit$$00000000) for __rt_exit
    __main.o(!!!main) refers to __rtentry.o(.ARM.Collect$$rtentry$$00000000) for __rt_entry
    d2f.o(x$fpl$d2f) refers (Special) to usenofp.o(x$fpl$usenofp) for __I$use$fp
    d2f.o(x$fpl$d2f) refers to fretinf.o(x$fpl$fretinf) for __fpl_fretinf
    d2f.o(x$fpl$d2f) refers to dnaninf.o(x$fpl$dnaninf) for __fpl_dnaninf
    daddsub_clz.o(x$fpl$dadd) refers (Special) to usenofp.o(x$fpl$usenofp) for __I$use$fp
    daddsub_clz.o(x$fpl$dadd) refers to daddsub_clz.o(x$fpl$dsub) for _dsub1
    daddsub_clz.o(x$fpl$dadd) refers to dretinf.o(x$fpl$dretinf) for __fpl_dretinf
    daddsub_clz.o(x$fpl$dadd) refers to dnaninf.o(x$fpl$dnaninf) for __fpl_dnaninf
    daddsub_clz.o(x$fpl$drsb) refers (Special) to usenofp.o(x$fpl$usenofp) for __I$use$fp
    daddsub_clz.o(x$fpl$drsb) refers to daddsub_clz.o(x$fpl$dadd) for _dadd1
    daddsub_clz.o(x$fpl$drsb) refers to daddsub_clz.o(x$fpl$dsub) for _dsub1
    daddsub_clz.o(x$fpl$dsub) refers (Special) to usenofp.o(x$fpl$usenofp) for __I$use$fp
    daddsub_clz.o(x$fpl$dsub) refers to daddsub_clz.o(x$fpl$dadd) for _dadd1
    daddsub_clz.o(x$fpl$dsub) refers to dnaninf.o(x$fpl$dnaninf) for __fpl_dnaninf
    ddiv.o(x$fpl$drdiv) refers (Special) to usenofp.o(x$fpl$usenofp) for __I$use$fp
    ddiv.o(x$fpl$drdiv) refers to ddiv.o(x$fpl$ddiv) for ddiv_entry
    ddiv.o(x$fpl$ddiv) refers (Special) to usenofp.o(x$fpl$usenofp) for __I$use$fp
    ddiv.o(x$fpl$ddiv) refers to dretinf.o(x$fpl$dretinf) for __fpl_dretinf
    ddiv.o(x$fpl$ddiv) refers to dnaninf.o(x$fpl$dnaninf) for __fpl_dnaninf
    dfix.o(x$fpl$dfix) refers (Special) to usenofp.o(x$fpl$usenofp) for __I$use$fp
    dfix.o(x$fpl$dfix) refers to dnaninf.o(x$fpl$dnaninf) for __fpl_dnaninf
    dfix.o(x$fpl$dfixr) refers (Special) to usenofp.o(x$fpl$usenofp) for __I$use$fp
    dfix.o(x$fpl$dfixr) refers to dnaninf.o(x$fpl$dnaninf) for __fpl_dnaninf
    dflt_clz.o(x$fpl$dfltu) refers (Special) to usenofp.o(x$fpl$usenofp) for __I$use$fp
    dflt_clz.o(x$fpl$dflt) refers (Special) to usenofp.o(x$fpl$usenofp) for __I$use$fp
    dflt_clz.o(x$fpl$dfltn) refers (Special) to usenofp.o(x$fpl$usenofp) for __I$use$fp
    dmul.o(x$fpl$dmul) refers (Special) to usenofp.o(x$fpl$usenofp) for __I$use$fp
    dmul.o(x$fpl$dmul) refers to dretinf.o(x$fpl$dretinf) for __fpl_dretinf
    dmul.o(x$fpl$dmul) refers to dnaninf.o(x$fpl$dnaninf) for __fpl_dnaninf
    f2d.o(x$fpl$f2d) refers (Special) to usenofp.o(x$fpl$usenofp) for __I$use$fp
    f2d.o(x$fpl$f2d) refers to fnaninf.o(x$fpl$fnaninf) for __fpl_fnaninf
    f2d.o(x$fpl$f2d) refers to dretinf.o(x$fpl$dretinf) for __fpl_dretinf
    atan.o(i.__hardfp_atan) refers (Special) to usenofp.o(x$fpl$usenofp) for __I$use$fp
    atan.o(i.__hardfp_atan) refers to dunder.o(i.__mathlib_dbl_infnan) for __mathlib_dbl_infnan
    atan.o(i.__hardfp_atan) refers to fpclassify.o(i.__ARM_fpclassify) for __ARM_fpclassify
    atan.o(i.__hardfp_atan) refers to dunder.o(i.__mathlib_dbl_underflow) for __mathlib_dbl_underflow
    atan.o(i.__hardfp_atan) refers to fabs.o(i.fabs) for fabs
    atan.o(i.__hardfp_atan) refers to daddsub_clz.o(x$fpl$dadd) for __aeabi_dadd
    atan.o(i.__hardfp_atan) refers to dmul.o(x$fpl$dmul) for __aeabi_dmul
    atan.o(i.__hardfp_atan) refers to daddsub_clz.o(x$fpl$dsub) for __aeabi_dsub
    atan.o(i.__hardfp_atan) refers to ddiv.o(x$fpl$ddiv) for __aeabi_ddiv
    atan.o(i.__hardfp_atan) refers to poly.o(i.__kernel_poly) for __kernel_poly
    atan.o(i.__hardfp_atan) refers to daddsub_clz.o(x$fpl$drsb) for __aeabi_drsub
    atan.o(i.__hardfp_atan) refers to basic.o(x$fpl$basic) for __aeabi_dneg
    atan.o(i.__hardfp_atan) refers to atan.o(.constdata) for .constdata
    atan.o(i.__softfp_atan) refers (Special) to usenofp.o(x$fpl$usenofp) for __I$use$fp
    atan.o(i.__softfp_atan) refers to atan.o(i.__hardfp_atan) for __hardfp_atan
    atan.o(i.atan) refers (Special) to usenofp.o(x$fpl$usenofp) for __I$use$fp
    atan.o(i.atan) refers to atan.o(i.__hardfp_atan) for __hardfp_atan
    atan.o(.constdata) refers (Special) to usenofp.o(x$fpl$usenofp) for __I$use$fp
    atan_x.o(i.____hardfp_atan$lsc) refers (Special) to usenofp.o(x$fpl$usenofp) for __I$use$fp
    atan_x.o(i.____hardfp_atan$lsc) refers to dunder.o(i.__mathlib_dbl_infnan) for __mathlib_dbl_infnan
    atan_x.o(i.____hardfp_atan$lsc) refers to fabs.o(i.fabs) for fabs
    atan_x.o(i.____hardfp_atan$lsc) refers to daddsub_clz.o(x$fpl$dadd) for __aeabi_dadd
    atan_x.o(i.____hardfp_atan$lsc) refers to dmul.o(x$fpl$dmul) for __aeabi_dmul
    atan_x.o(i.____hardfp_atan$lsc) refers to daddsub_clz.o(x$fpl$dsub) for __aeabi_dsub
    atan_x.o(i.____hardfp_atan$lsc) refers to ddiv.o(x$fpl$ddiv) for __aeabi_ddiv
    atan_x.o(i.____hardfp_atan$lsc) refers to poly.o(i.__kernel_poly) for __kernel_poly
    atan_x.o(i.____hardfp_atan$lsc) refers to daddsub_clz.o(x$fpl$drsb) for __aeabi_drsub
    atan_x.o(i.____hardfp_atan$lsc) refers to basic.o(x$fpl$basic) for __aeabi_dneg
    atan_x.o(i.____hardfp_atan$lsc) refers to atan_x.o(.constdata) for .constdata
    atan_x.o(i.____softfp_atan$lsc) refers (Special) to usenofp.o(x$fpl$usenofp) for __I$use$fp
    atan_x.o(i.____softfp_atan$lsc) refers to atan_x.o(i.____hardfp_atan$lsc) for ____hardfp_atan$lsc
    atan_x.o(i.__atan$lsc) refers (Special) to usenofp.o(x$fpl$usenofp) for __I$use$fp
    atan_x.o(i.__atan$lsc) refers to atan_x.o(i.____hardfp_atan$lsc) for ____hardfp_atan$lsc
    atan_x.o(.constdata) refers (Special) to usenofp.o(x$fpl$usenofp) for __I$use$fp
    cos.o(i.__hardfp_cos) refers (Special) to usenofp.o(x$fpl$usenofp) for __I$use$fp
    cos.o(i.__hardfp_cos) refers to _rserrno.o(.text) for __set_errno
    cos.o(i.__hardfp_cos) refers to dunder.o(i.__mathlib_dbl_invalid) for __mathlib_dbl_invalid
    cos.o(i.__hardfp_cos) refers to dunder.o(i.__mathlib_dbl_infnan) for __mathlib_dbl_infnan
    cos.o(i.__hardfp_cos) refers to rred.o(i.__ieee754_rem_pio2) for __ieee754_rem_pio2
    cos.o(i.__hardfp_cos) refers to sin_i.o(i.__kernel_sin) for __kernel_sin
    cos.o(i.__hardfp_cos) refers to cos_i.o(i.__kernel_cos) for __kernel_cos
    cos.o(i.__hardfp_cos) refers to basic.o(x$fpl$basic) for __aeabi_dneg
    cos.o(i.__softfp_cos) refers (Special) to usenofp.o(x$fpl$usenofp) for __I$use$fp
    cos.o(i.__softfp_cos) refers to cos.o(i.__hardfp_cos) for __hardfp_cos
    cos.o(i.cos) refers (Special) to usenofp.o(x$fpl$usenofp) for __I$use$fp
    cos.o(i.cos) refers to cos.o(i.__hardfp_cos) for __hardfp_cos
    cos_x.o(i.____hardfp_cos$lsc) refers (Special) to usenofp.o(x$fpl$usenofp) for __I$use$fp
    cos_x.o(i.____hardfp_cos$lsc) refers to _rserrno.o(.text) for __set_errno
    cos_x.o(i.____hardfp_cos$lsc) refers to dunder.o(i.__mathlib_dbl_infnan) for __mathlib_dbl_infnan
    cos_x.o(i.____hardfp_cos$lsc) refers to rred.o(i.__ieee754_rem_pio2) for __ieee754_rem_pio2
    cos_x.o(i.____hardfp_cos$lsc) refers to sin_i.o(i.__kernel_sin) for __kernel_sin
    cos_x.o(i.____hardfp_cos$lsc) refers to cos_i.o(i.__kernel_cos) for __kernel_cos
    cos_x.o(i.____hardfp_cos$lsc) refers to basic.o(x$fpl$basic) for __aeabi_dneg
    cos_x.o(i.____softfp_cos$lsc) refers (Special) to usenofp.o(x$fpl$usenofp) for __I$use$fp
    cos_x.o(i.____softfp_cos$lsc) refers to cos_x.o(i.____hardfp_cos$lsc) for ____hardfp_cos$lsc
    cos_x.o(i.__cos$lsc) refers (Special) to usenofp.o(x$fpl$usenofp) for __I$use$fp
    cos_x.o(i.__cos$lsc) refers to cos_x.o(i.____hardfp_cos$lsc) for ____hardfp_cos$lsc
    sin.o(i.__hardfp_sin) refers (Special) to usenofp.o(x$fpl$usenofp) for __I$use$fp
    sin.o(i.__hardfp_sin) refers to _rserrno.o(.text) for __set_errno
    sin.o(i.__hardfp_sin) refers to dunder.o(i.__mathlib_dbl_invalid) for __mathlib_dbl_invalid
    sin.o(i.__hardfp_sin) refers to dunder.o(i.__mathlib_dbl_infnan) for __mathlib_dbl_infnan
    sin.o(i.__hardfp_sin) refers to rred.o(i.__ieee754_rem_pio2) for __ieee754_rem_pio2
    sin.o(i.__hardfp_sin) refers to cos_i.o(i.__kernel_cos) for __kernel_cos
    sin.o(i.__hardfp_sin) refers to basic.o(x$fpl$basic) for __aeabi_dneg
    sin.o(i.__hardfp_sin) refers to sin_i.o(i.__kernel_sin) for __kernel_sin
    sin.o(i.__softfp_sin) refers (Special) to usenofp.o(x$fpl$usenofp) for __I$use$fp
    sin.o(i.__softfp_sin) refers to sin.o(i.__hardfp_sin) for __hardfp_sin
    sin.o(i.sin) refers (Special) to usenofp.o(x$fpl$usenofp) for __I$use$fp
    sin.o(i.sin) refers to sin.o(i.__hardfp_sin) for __hardfp_sin
    sin_x.o(i.____hardfp_sin$lsc) refers (Special) to usenofp.o(x$fpl$usenofp) for __I$use$fp
    sin_x.o(i.____hardfp_sin$lsc) refers to _rserrno.o(.text) for __set_errno
    sin_x.o(i.____hardfp_sin$lsc) refers to dunder.o(i.__mathlib_dbl_infnan) for __mathlib_dbl_infnan
    sin_x.o(i.____hardfp_sin$lsc) refers to rred.o(i.__ieee754_rem_pio2) for __ieee754_rem_pio2
    sin_x.o(i.____hardfp_sin$lsc) refers to cos_i.o(i.__kernel_cos) for __kernel_cos
    sin_x.o(i.____hardfp_sin$lsc) refers to basic.o(x$fpl$basic) for __aeabi_dneg
    sin_x.o(i.____hardfp_sin$lsc) refers to sin_i.o(i.__kernel_sin) for __kernel_sin
    sin_x.o(i.____softfp_sin$lsc) refers (Special) to usenofp.o(x$fpl$usenofp) for __I$use$fp
    sin_x.o(i.____softfp_sin$lsc) refers to sin_x.o(i.____hardfp_sin$lsc) for ____hardfp_sin$lsc
    sin_x.o(i.__sin$lsc) refers (Special) to usenofp.o(x$fpl$usenofp) for __I$use$fp
    sin_x.o(i.__sin$lsc) refers to sin_x.o(i.____hardfp_sin$lsc) for ____hardfp_sin$lsc
    sqrt.o(i.__hardfp_sqrt) refers (Special) to usenofp.o(x$fpl$usenofp) for __I$use$fp
    sqrt.o(i.__hardfp_sqrt) refers to dsqrt_umaal.o(x$fpl$dsqrt) for _dsqrt
    sqrt.o(i.__hardfp_sqrt) refers to _rserrno.o(.text) for __set_errno
    sqrt.o(i.__softfp_sqrt) refers (Special) to usenofp.o(x$fpl$usenofp) for __I$use$fp
    sqrt.o(i.__softfp_sqrt) refers to dsqrt_umaal.o(x$fpl$dsqrt) for _dsqrt
    sqrt.o(i.__softfp_sqrt) refers to _rserrno.o(.text) for __set_errno
    sqrt.o(i.sqrt) refers (Special) to usenofp.o(x$fpl$usenofp) for __I$use$fp
    sqrt.o(i.sqrt) refers to dsqrt_umaal.o(x$fpl$dsqrt) for _dsqrt
    sqrt.o(i.sqrt) refers to _rserrno.o(.text) for __set_errno
    sqrt_x.o(i.____hardfp_sqrt$lsc) refers (Special) to usenofp.o(x$fpl$usenofp) for __I$use$fp
    sqrt_x.o(i.____hardfp_sqrt$lsc) refers to dleqf.o(x$fpl$dleqf) for __aeabi_cdcmple
    sqrt_x.o(i.____hardfp_sqrt$lsc) refers to _rserrno.o(.text) for __set_errno
    sqrt_x.o(i.____hardfp_sqrt$lsc) refers to dsqrt_umaal.o(x$fpl$dsqrt) for _dsqrt
    sqrt_x.o(i.____softfp_sqrt$lsc) refers (Special) to usenofp.o(x$fpl$usenofp) for __I$use$fp
    sqrt_x.o(i.____softfp_sqrt$lsc) refers to dleqf.o(x$fpl$dleqf) for __aeabi_cdcmple
    sqrt_x.o(i.____softfp_sqrt$lsc) refers to _rserrno.o(.text) for __set_errno
    sqrt_x.o(i.____softfp_sqrt$lsc) refers to dsqrt_umaal.o(x$fpl$dsqrt) for _dsqrt
    sqrt_x.o(i.__sqrt$lsc) refers (Special) to usenofp.o(x$fpl$usenofp) for __I$use$fp
    sqrt_x.o(i.__sqrt$lsc) refers to dleqf.o(x$fpl$dleqf) for __aeabi_cdcmple
    sqrt_x.o(i.__sqrt$lsc) refers to _rserrno.o(.text) for __set_errno
    sqrt_x.o(i.__sqrt$lsc) refers to dsqrt_umaal.o(x$fpl$dsqrt) for _dsqrt
    __rtentry.o(.ARM.Collect$$rtentry$$00000000) refers (Special) to __rtentry2.o(.ARM.Collect$$rtentry$$0000000A) for __rt_entry_li
    __rtentry.o(.ARM.Collect$$rtentry$$00000000) refers (Special) to __rtentry2.o(.ARM.Collect$$rtentry$$0000000D) for __rt_entry_main
    __rtentry.o(.ARM.Collect$$rtentry$$00000000) refers (Special) to __rtentry2.o(.ARM.Collect$$rtentry$$0000000B) for __rt_entry_postli_1
    __rtentry.o(.ARM.Collect$$rtentry$$00000000) refers (Special) to __rtentry2.o(.ARM.Collect$$rtentry$$00000009) for __rt_entry_postsh_1
    __rtentry.o(.ARM.Collect$$rtentry$$00000000) refers (Special) to __rtentry2.o(.ARM.Collect$$rtentry$$00000002) for __rt_entry_presh_1
    __rtentry.o(.ARM.Collect$$rtentry$$00000000) refers (Special) to __rtentry4.o(.ARM.Collect$$rtentry$$00000004) for __rt_entry_sh
    rtexit.o(.ARM.Collect$$rtexit$$00000000) refers (Special) to rtexit2.o(.ARM.Collect$$rtexit$$00000004) for __rt_exit_exit
    rtexit.o(.ARM.Collect$$rtexit$$00000000) refers (Special) to rtexit2.o(.ARM.Collect$$rtexit$$00000003) for __rt_exit_ls
    rtexit.o(.ARM.Collect$$rtexit$$00000000) refers (Special) to rtexit2.o(.ARM.Collect$$rtexit$$00000002) for __rt_exit_prels_1
    rtexit.o(.ARM.exidx) refers (Special) to rtexit2.o(.ARM.Collect$$rtexit$$00000004) for __rt_exit_exit
    rtexit.o(.ARM.exidx) refers (Special) to rtexit2.o(.ARM.Collect$$rtexit$$00000003) for __rt_exit_ls
    rtexit.o(.ARM.exidx) refers (Special) to rtexit2.o(.ARM.Collect$$rtexit$$00000002) for __rt_exit_prels_1
    rtexit.o(.ARM.exidx) refers to rtexit.o(.ARM.Collect$$rtexit$$00000000) for .ARM.Collect$$rtexit$$00000000
    aeabi_ldiv0_sigfpe.o(.text) refers to rt_div0.o(.text) for __rt_div0
    _rserrno.o(.text) refers to rt_errno_addr_twolibspace.o(.text) for __aeabi_errno_addr
    basic.o(x$fpl$basic) refers (Special) to usenofp.o(x$fpl$usenofp) for __I$use$fp
    dleqf.o(x$fpl$dleqf) refers (Special) to usenofp.o(x$fpl$usenofp) for __I$use$fp
    dleqf.o(x$fpl$dleqf) refers to dnaninf.o(x$fpl$dnaninf) for __fpl_dnaninf
    dleqf.o(x$fpl$dleqf) refers to dcmpi.o(x$fpl$dcmpinf) for __fpl_dcmp_Inf
    dnaninf.o(x$fpl$dnaninf) refers (Special) to usenofp.o(x$fpl$usenofp) for __I$use$fp
    dretinf.o(x$fpl$dretinf) refers (Special) to usenofp.o(x$fpl$usenofp) for __I$use$fp
    dsqrt_umaal.o(x$fpl$dsqrt) refers (Special) to usenofp.o(x$fpl$usenofp) for __I$use$fp
    dsqrt_umaal.o(x$fpl$dsqrt) refers to dnaninf.o(x$fpl$dnaninf) for __fpl_dnaninf
    fnaninf.o(x$fpl$fnaninf) refers (Special) to usenofp.o(x$fpl$usenofp) for __I$use$fp
    fretinf.o(x$fpl$fretinf) refers (Special) to usenofp.o(x$fpl$usenofp) for __I$use$fp
    cos_i.o(i.__kernel_cos) refers (Special) to usenofp.o(x$fpl$usenofp) for __I$use$fp
    cos_i.o(i.__kernel_cos) refers to dfix.o(x$fpl$dfix) for __aeabi_d2iz
    cos_i.o(i.__kernel_cos) refers to dmul.o(x$fpl$dmul) for __aeabi_dmul
    cos_i.o(i.__kernel_cos) refers to poly.o(i.__kernel_poly) for __kernel_poly
    cos_i.o(i.__kernel_cos) refers to daddsub_clz.o(x$fpl$dsub) for __aeabi_dsub
    cos_i.o(i.__kernel_cos) refers to daddsub_clz.o(x$fpl$drsb) for __aeabi_drsub
    cos_i.o(i.__kernel_cos) refers to cos_i.o(.constdata) for .constdata
    cos_i.o(.constdata) refers (Special) to usenofp.o(x$fpl$usenofp) for __I$use$fp
    dunder.o(i.__mathlib_dbl_divzero) refers to ddiv.o(x$fpl$ddiv) for __aeabi_ddiv
    dunder.o(i.__mathlib_dbl_infnan) refers to daddsub_clz.o(x$fpl$dadd) for __aeabi_dadd
    dunder.o(i.__mathlib_dbl_infnan2) refers to daddsub_clz.o(x$fpl$dadd) for __aeabi_dadd
    dunder.o(i.__mathlib_dbl_invalid) refers to ddiv.o(x$fpl$ddiv) for __aeabi_ddiv
    dunder.o(i.__mathlib_dbl_overflow) refers to dmul.o(x$fpl$dmul) for __aeabi_dmul
    dunder.o(i.__mathlib_dbl_posinfnan) refers to dmul.o(x$fpl$dmul) for __aeabi_dmul
    dunder.o(i.__mathlib_dbl_underflow) refers to dmul.o(x$fpl$dmul) for __aeabi_dmul
    fabs.o(i.__hardfp_fabs) refers (Special) to usenofp.o(x$fpl$usenofp) for __I$use$fp
    fabs.o(i.__softfp_fabs) refers (Special) to usenofp.o(x$fpl$usenofp) for __I$use$fp
    fabs.o(i.fabs) refers (Special) to usenofp.o(x$fpl$usenofp) for __I$use$fp
    fpclassify.o(i.__ARM_fpclassify) refers (Special) to usenofp.o(x$fpl$usenofp) for __I$use$fp
    poly.o(i.__kernel_poly) refers (Special) to usenofp.o(x$fpl$usenofp) for __I$use$fp
    poly.o(i.__kernel_poly) refers to dmul.o(x$fpl$dmul) for __aeabi_dmul
    poly.o(i.__kernel_poly) refers to daddsub_clz.o(x$fpl$dadd) for __aeabi_dadd
    rred.o(i.__ieee754_rem_pio2) refers (Special) to usenofp.o(x$fpl$usenofp) for __I$use$fp
    rred.o(i.__ieee754_rem_pio2) refers to daddsub_clz.o(x$fpl$dsub) for __aeabi_dsub
    rred.o(i.__ieee754_rem_pio2) refers to daddsub_clz.o(x$fpl$dadd) for __aeabi_dadd
    rred.o(i.__ieee754_rem_pio2) refers to fabs.o(i.fabs) for fabs
    rred.o(i.__ieee754_rem_pio2) refers to dmul.o(x$fpl$dmul) for __aeabi_dmul
    rred.o(i.__ieee754_rem_pio2) refers to dfix.o(x$fpl$dfix) for __aeabi_d2iz
    rred.o(i.__ieee754_rem_pio2) refers to dflt_clz.o(x$fpl$dflt) for __aeabi_i2d
    rred.o(i.__ieee754_rem_pio2) refers to daddsub_clz.o(x$fpl$drsb) for __aeabi_drsub
    rred.o(i.__ieee754_rem_pio2) refers to basic.o(x$fpl$basic) for __aeabi_dneg
    rred.o(i.__ieee754_rem_pio2) refers to dflt_clz.o(x$fpl$dfltu) for __aeabi_ui2d
    rred.o(i.__ieee754_rem_pio2) refers to rred.o(.constdata) for .constdata
    rred.o(i.__use_accurate_range_reduction) refers (Special) to usenofp.o(x$fpl$usenofp) for __I$use$fp
    rred.o(.constdata) refers (Special) to usenofp.o(x$fpl$usenofp) for __I$use$fp
    sin_i.o(i.__kernel_sin) refers (Special) to usenofp.o(x$fpl$usenofp) for __I$use$fp
    sin_i.o(i.__kernel_sin) refers to fpclassify.o(i.__ARM_fpclassify) for __ARM_fpclassify
    sin_i.o(i.__kernel_sin) refers to dunder.o(i.__mathlib_dbl_underflow) for __mathlib_dbl_underflow
    sin_i.o(i.__kernel_sin) refers to dmul.o(x$fpl$dmul) for __aeabi_dmul
    sin_i.o(i.__kernel_sin) refers to poly.o(i.__kernel_poly) for __kernel_poly
    sin_i.o(i.__kernel_sin) refers to daddsub_clz.o(x$fpl$dsub) for __aeabi_dsub
    sin_i.o(i.__kernel_sin) refers to daddsub_clz.o(x$fpl$drsb) for __aeabi_drsub
    sin_i.o(i.__kernel_sin) refers to daddsub_clz.o(x$fpl$dadd) for __aeabi_dadd
    sin_i.o(i.__kernel_sin) refers to sin_i.o(.constdata) for .constdata
    sin_i.o(.constdata) refers (Special) to usenofp.o(x$fpl$usenofp) for __I$use$fp
    sin_i_x.o(i.____kernel_sin$lsc) refers (Special) to usenofp.o(x$fpl$usenofp) for __I$use$fp
    sin_i_x.o(i.____kernel_sin$lsc) refers to dmul.o(x$fpl$dmul) for __aeabi_dmul
    sin_i_x.o(i.____kernel_sin$lsc) refers to poly.o(i.__kernel_poly) for __kernel_poly
    sin_i_x.o(i.____kernel_sin$lsc) refers to daddsub_clz.o(x$fpl$dsub) for __aeabi_dsub
    sin_i_x.o(i.____kernel_sin$lsc) refers to daddsub_clz.o(x$fpl$drsb) for __aeabi_drsub
    sin_i_x.o(i.____kernel_sin$lsc) refers to daddsub_clz.o(x$fpl$dadd) for __aeabi_dadd
    sin_i_x.o(i.____kernel_sin$lsc) refers to sin_i_x.o(.constdata) for .constdata
    sin_i_x.o(.constdata) refers (Special) to usenofp.o(x$fpl$usenofp) for __I$use$fp
    __rtentry2.o(.ARM.Collect$$rtentry$$00000008) refers to boardinit2.o(.text) for _platform_post_stackheap_init
    __rtentry2.o(.ARM.Collect$$rtentry$$0000000A) refers to libinit.o(.ARM.Collect$$libinit$$00000000) for __rt_lib_init
    __rtentry2.o(.ARM.Collect$$rtentry$$0000000B) refers to rtx_conf_cm.o(.emb_text) for _platform_post_lib_init
    __rtentry2.o(.ARM.Collect$$rtentry$$0000000D) refers to exemplotiva.o(.text) for main
    __rtentry2.o(.ARM.Collect$$rtentry$$0000000D) refers to exit.o(.text) for exit
    __rtentry2.o(.ARM.exidx) refers to __rtentry2.o(.ARM.Collect$$rtentry$$00000001) for .ARM.Collect$$rtentry$$00000001
    __rtentry2.o(.ARM.exidx) refers to __rtentry2.o(.ARM.Collect$$rtentry$$00000008) for .ARM.Collect$$rtentry$$00000008
    __rtentry2.o(.ARM.exidx) refers to __rtentry2.o(.ARM.Collect$$rtentry$$0000000A) for .ARM.Collect$$rtentry$$0000000A
    __rtentry2.o(.ARM.exidx) refers to __rtentry2.o(.ARM.Collect$$rtentry$$0000000B) for .ARM.Collect$$rtentry$$0000000B
    __rtentry2.o(.ARM.exidx) refers to __rtentry2.o(.ARM.Collect$$rtentry$$0000000D) for .ARM.Collect$$rtentry$$0000000D
    __rtentry4.o(.ARM.Collect$$rtentry$$00000004) refers to sys_stackheap_outer.o(.text) for __user_setup_stackheap
    __rtentry4.o(.ARM.exidx) refers to __rtentry4.o(.ARM.Collect$$rtentry$$00000004) for .ARM.Collect$$rtentry$$00000004
    rtexit2.o(.ARM.Collect$$rtexit$$00000003) refers to libshutdown.o(.ARM.Collect$$libshutdown$$00000000) for __rt_lib_shutdown
    rtexit2.o(.ARM.Collect$$rtexit$$00000004) refers to sys_exit.o(.text) for _sys_exit
    rtexit2.o(.ARM.exidx) refers to rtexit2.o(.ARM.Collect$$rtexit$$00000001) for .ARM.Collect$$rtexit$$00000001
    rtexit2.o(.ARM.exidx) refers to rtexit2.o(.ARM.Collect$$rtexit$$00000003) for .ARM.Collect$$rtexit$$00000003
    rtexit2.o(.ARM.exidx) refers to rtexit2.o(.ARM.Collect$$rtexit$$00000004) for .ARM.Collect$$rtexit$$00000004
    rt_div0.o(.text) refers to defsig_fpe_outer.o(.text) for __rt_SIGFPE
    rt_errno_addr.o(.text) refers to rt_errno_addr.o(.bss) for __aeabi_errno_addr_data
    rt_errno_addr_intlibspace.o(.text) refers to libspace.o(.bss) for __libspace_start
    rt_errno_addr_twolibspace.o(.text) refers to rtx_conf_cm.o(.text) for __user_perthread_libspace
    dcmpi.o(x$fpl$dcmpinf) refers (Special) to usenofp.o(x$fpl$usenofp) for __I$use$fp
    sys_exit.o(.text) refers (Special) to use_no_semi.o(.text) for __I$use$semihosting
    sys_exit.o(.text) refers (Special) to indicate_semi.o(.text) for __semihosting_library_function
    sys_stackheap_outer.o(.text) refers to libspace.o(.text) for __user_perproc_libspace
    sys_stackheap_outer.o(.text) refers to startup_tm4c129.o(.text) for __user_initial_stackheap
    defsig_fpe_outer.o(.text) refers to defsig_fpe_inner.o(.text) for __rt_SIGFPE_inner
    defsig_fpe_outer.o(.text) refers to defsig_exit.o(.text) for __sig_exit
    defsig_fpe_formal.o(.text) refers to rt_raise.o(.text) for __rt_raise
    libinit.o(.ARM.Collect$$libinit$$00000000) refers (Special) to libinit2.o(.ARM.Collect$$libinit$$0000002E) for __rt_lib_init_alloca_1
    libinit.o(.ARM.Collect$$libinit$$00000000) refers (Special) to libinit2.o(.ARM.Collect$$libinit$$0000002C) for __rt_lib_init_argv_1
    libinit.o(.ARM.Collect$$libinit$$00000000) refers (Special) to libinit2.o(.ARM.Collect$$libinit$$0000001B) for __rt_lib_init_atexit_1
    libinit.o(.ARM.Collect$$libinit$$00000000) refers (Special) to libinit2.o(.ARM.Collect$$libinit$$00000021) for __rt_lib_init_clock_1
    libinit.o(.ARM.Collect$$libinit$$00000000) refers (Special) to libinit2.o(.ARM.Collect$$libinit$$00000032) for __rt_lib_init_cpp_1
    libinit.o(.ARM.Collect$$libinit$$00000000) refers (Special) to libinit2.o(.ARM.Collect$$libinit$$00000030) for __rt_lib_init_exceptions_1
    libinit.o(.ARM.Collect$$libinit$$00000000) refers (Special) to libinit2.o(.ARM.Collect$$libinit$$00000001) for __rt_lib_init_fp_1
    libinit.o(.ARM.Collect$$libinit$$00000000) refers (Special) to libinit2.o(.ARM.Collect$$libinit$$0000001F) for __rt_lib_init_fp_trap_1
    libinit.o(.ARM.Collect$$libinit$$00000000) refers (Special) to libinit2.o(.ARM.Collect$$libinit$$00000023) for __rt_lib_init_getenv_1
    libinit.o(.ARM.Collect$$libinit$$00000000) refers (Special) to libinit2.o(.ARM.Collect$$libinit$$0000000A) for __rt_lib_init_heap_1
    libinit.o(.ARM.Collect$$libinit$$00000000) refers (Special) to libinit2.o(.ARM.Collect$$libinit$$00000011) for __rt_lib_init_lc_collate_1
    libinit.o(.ARM.Collect$$libinit$$00000000) refers (Special) to libinit2.o(.ARM.Collect$$libinit$$00000013) for __rt_lib_init_lc_ctype_1
    libinit.o(.ARM.Collect$$libinit$$00000000) refers (Special) to libinit2.o(.ARM.Collect$$libinit$$00000015) for __rt_lib_init_lc_monetary_1
    libinit.o(.ARM.Collect$$libinit$$00000000) refers (Special) to libinit2.o(.ARM.Collect$$libinit$$00000017) for __rt_lib_init_lc_numeric_1
    libinit.o(.ARM.Collect$$libinit$$00000000) refers (Special) to libinit2.o(.ARM.Collect$$libinit$$00000019) for __rt_lib_init_lc_time_1
    libinit.o(.ARM.Collect$$libinit$$00000000) refers (Special) to libinit2.o(.ARM.Collect$$libinit$$00000004) for __rt_lib_init_preinit_1
    libinit.o(.ARM.Collect$$libinit$$00000000) refers (Special) to libinit2.o(.ARM.Collect$$libinit$$0000000E) for __rt_lib_init_rand_1
    libinit.o(.ARM.Collect$$libinit$$00000000) refers (Special) to libinit2.o(.ARM.Collect$$libinit$$00000033) for __rt_lib_init_return
    libinit.o(.ARM.Collect$$libinit$$00000000) refers (Special) to libinit2.o(.ARM.Collect$$libinit$$0000001D) for __rt_lib_init_signal_1
    libinit.o(.ARM.Collect$$libinit$$00000000) refers (Special) to libinit2.o(.ARM.Collect$$libinit$$00000025) for __rt_lib_init_stdio_1
    libinit.o(.ARM.Collect$$libinit$$00000000) refers (Special) to libinit2.o(.ARM.Collect$$libinit$$0000000C) for __rt_lib_init_user_alloc_1
    libshutdown.o(.ARM.Collect$$libshutdown$$00000000) refers (Special) to libshutdown2.o(.ARM.Collect$$libshutdown$$00000002) for __rt_lib_shutdown_cpp_1
    libshutdown.o(.ARM.Collect$$libshutdown$$00000000) refers (Special) to libshutdown2.o(.ARM.Collect$$libshutdown$$00000007) for __rt_lib_shutdown_fp_trap_1
    libshutdown.o(.ARM.Collect$$libshutdown$$00000000) refers (Special) to libshutdown2.o(.ARM.Collect$$libshutdown$$0000000F) for __rt_lib_shutdown_heap_1
    libshutdown.o(.ARM.Collect$$libshutdown$$00000000) refers (Special) to libshutdown2.o(.ARM.Collect$$libshutdown$$00000010) for __rt_lib_shutdown_return
    libshutdown.o(.ARM.Collect$$libshutdown$$00000000) refers (Special) to libshutdown2.o(.ARM.Collect$$libshutdown$$0000000A) for __rt_lib_shutdown_signal_1
    libshutdown.o(.ARM.Collect$$libshutdown$$00000000) refers (Special) to libshutdown2.o(.ARM.Collect$$libshutdown$$00000004) for __rt_lib_shutdown_stdio_1
    libshutdown.o(.ARM.Collect$$libshutdown$$00000000) refers (Special) to libshutdown2.o(.ARM.Collect$$libshutdown$$0000000C) for __rt_lib_shutdown_user_alloc_1
    rt_raise.o(.text) refers to __raise.o(.text) for __raise
    rt_raise.o(.text) refers to sys_exit.o(.text) for _sys_exit
    defsig_exit.o(.text) refers to sys_exit.o(.text) for _sys_exit
    defsig_fpe_inner.o(.text) refers to defsig_general.o(.text) for __default_signal_display
    libinit2.o(.ARM.Collect$$libinit$$00000001) refers to fpinit.o(x$fpl$fpinit) for _fp_init
    libinit2.o(.ARM.Collect$$libinit$$00000010) refers to libinit2.o(.ARM.Collect$$libinit$$0000000F) for .ARM.Collect$$libinit$$0000000F
    libinit2.o(.ARM.Collect$$libinit$$00000012) refers to libinit2.o(.ARM.Collect$$libinit$$0000000F) for .ARM.Collect$$libinit$$0000000F
    libinit2.o(.ARM.Collect$$libinit$$00000014) refers to libinit2.o(.ARM.Collect$$libinit$$0000000F) for .ARM.Collect$$libinit$$0000000F
    libinit2.o(.ARM.Collect$$libinit$$00000016) refers to libinit2.o(.ARM.Collect$$libinit$$0000000F) for .ARM.Collect$$libinit$$0000000F
    libinit2.o(.ARM.Collect$$libinit$$00000018) refers to libinit2.o(.ARM.Collect$$libinit$$0000000F) for .ARM.Collect$$libinit$$0000000F
    libinit2.o(.ARM.Collect$$libinit$$00000026) refers to argv_veneer.o(.emb_text) for __ARM_argv_veneer
    libinit2.o(.ARM.Collect$$libinit$$00000027) refers to argv_veneer.o(.emb_text) for __ARM_argv_veneer
    __raise.o(.text) refers to defsig.o(CL$$defsig) for __default_signal_handler
    defsig_general.o(.text) refers to sys_wrch.o(.text) for _ttywrch
    argv_veneer.o(.emb_text) refers to no_argv.o(.text) for __ARM_get_argv
    sys_wrch.o(.text) refers (Special) to use_no_semi.o(.text) for __I$use$semihosting
    sys_wrch.o(.text) refers (Special) to indicate_semi.o(.text) for __semihosting_library_function
    defsig.o(CL$$defsig) refers to defsig_fpe_inner.o(.text) for __rt_SIGFPE_inner
    defsig.o(CL$$defsig) refers to defsig_rtmem_inner.o(.text) for __rt_SIGRTMEM_inner
    _get_argv_nomalloc.o(.text) refers (Special) to hrguard.o(.text) for __heap_region$guard
    _get_argv_nomalloc.o(.text) refers to defsig_rtmem_outer.o(.text) for __rt_SIGRTMEM
    _get_argv_nomalloc.o(.text) refers to sys_command.o(.text) for _sys_command_string
    sys_command.o(.text) refers (Special) to use_no_semi.o(.text) for __I$use$semihosting
    sys_command.o(.text) refers (Special) to indicate_semi.o(.text) for __semihosting_library_function
    defsig_abrt_inner.o(.text) refers to defsig_general.o(.text) for __default_signal_display
    defsig_rtred_inner.o(.text) refers to defsig_general.o(.text) for __default_signal_display
    defsig_rtmem_inner.o(.text) refers to defsig_general.o(.text) for __default_signal_display
    defsig_rtmem_outer.o(.text) refers to defsig_rtmem_inner.o(.text) for __rt_SIGRTMEM_inner
    defsig_rtmem_outer.o(.text) refers to defsig_exit.o(.text) for __sig_exit
    defsig_rtmem_formal.o(.text) refers to rt_raise.o(.text) for __rt_raise
    defsig_stak_inner.o(.text) refers to defsig_general.o(.text) for __default_signal_display
    defsig_pvfn_inner.o(.text) refers to defsig_general.o(.text) for __default_signal_display
    defsig_cppl_inner.o(.text) refers to defsig_general.o(.text) for __default_signal_display
    defsig_segv_inner.o(.text) refers to defsig_general.o(.text) for __default_signal_display
    defsig_other.o(.text) refers to defsig_general.o(.text) for __default_signal_display


==============================================================================

Removing Unused input sections from the image.

    Removing exemplotiva.o(.rev16_text), (4 bytes).
    Removing exemplotiva.o(.revsh_text), (4 bytes).
    Removing exemplotiva.o(.rrx_text), (6 bytes).
    Removing exemplotiva.o(.constdata), (16 bytes).
    Removing exemplotiva.o(.constdata), (16 bytes).
    Removing exemplotiva.o(.constdata), (16 bytes).
    Removing exemplotiva.o(.constdata), (16 bytes).
    Removing exemplotiva.o(.constdata), (16 bytes).
    Removing pwm.o(.rev16_text), (4 bytes).
    Removing pwm.o(.revsh_text), (4 bytes).
    Removing pwm.o(.rrx_text), (6 bytes).
    Removing timer.o(.rev16_text), (4 bytes).
    Removing timer.o(.revsh_text), (4 bytes).
    Removing timer.o(.rrx_text), (6 bytes).
    Removing uart.o(.rev16_text), (4 bytes).
    Removing uart.o(.revsh_text), (4 bytes).
    Removing uart.o(.rrx_text), (6 bytes).
    Removing cfaf128x128x16.o(.constdata), (2 bytes).
    Removing cfaf128x128x16.o(.constdata), (2 bytes).
    Removing cfaf128x128x16.o(.constdata), (2 bytes).
    Removing cfaf128x128x16.o(.constdata), (2 bytes).
    Removing cfaf128x128x16.o(.constdata), (2 bytes).
    Removing cfaf128x128x16.o(.constdata), (2 bytes).
    Removing cfaf128x128x16.o(.constdata), (2 bytes).
    Removing cfaf128x128x16.o(.constdata), (2 bytes).
    Removing cfaf128x128x16.o(.constdata), (2 bytes).
    Removing cfaf128x128x16.o(.constdata), (2 bytes).
    Removing cfaf128x128x16.o(.constdata), (2 bytes).
    Removing cfaf128x128x16.o(.constdata), (2 bytes).
    Removing rtx_conf_cm.o(.constdata), (4 bytes).
    Removing rtx_conf_cm.o(.constdata), (2 bytes).
    Removing rtx_conf_cm.o(.constdata), (2 bytes).
    Removing rtx_conf_cm.o(.data), (4 bytes).
    Removing system_tm4c129.o(.rev16_text), (4 bytes).
    Removing system_tm4c129.o(.revsh_text), (4 bytes).
    Removing system_tm4c129.o(.rrx_text), (6 bytes).
    Removing sysctl.o(.emb_text), (6 bytes).
    Removing sysctl.o(i.SysCtlAltClkConfig), (12 bytes).
    Removing sysctl.o(i.SysCtlClockGet), (340 bytes).
    Removing sysctl.o(i.SysCtlClockOutConfig), (20 bytes).
    Removing sysctl.o(i.SysCtlClockSet), (288 bytes).
    Removing sysctl.o(i.SysCtlDeepSleep), (32 bytes).
    Removing sysctl.o(i.SysCtlDeepSleepClockConfigSet), (112 bytes).
    Removing sysctl.o(i.SysCtlDeepSleepClockSet), (12 bytes).
    Removing sysctl.o(i.SysCtlDeepSleepPowerSet), (12 bytes).
    Removing sysctl.o(i.SysCtlFlashSectorSizeGet), (56 bytes).
    Removing sysctl.o(i.SysCtlFlashSizeGet), (56 bytes).
    Removing sysctl.o(i.SysCtlGPIOAHBDisable), (28 bytes).
    Removing sysctl.o(i.SysCtlGPIOAHBEnable), (24 bytes).
    Removing sysctl.o(i.SysCtlIntClear), (12 bytes).
    Removing sysctl.o(i.SysCtlIntDisable), (16 bytes).
    Removing sysctl.o(i.SysCtlIntEnable), (16 bytes).
    Removing sysctl.o(i.SysCtlIntRegister), (20 bytes).
    Removing sysctl.o(i.SysCtlIntStatus), (16 bytes).
    Removing sysctl.o(i.SysCtlIntUnregister), (18 bytes).
    Removing sysctl.o(i.SysCtlLDODeepSleepGet), (12 bytes).
    Removing sysctl.o(i.SysCtlLDODeepSleepSet), (12 bytes).
    Removing sysctl.o(i.SysCtlLDOSleepGet), (12 bytes).
    Removing sysctl.o(i.SysCtlLDOSleepSet), (12 bytes).
    Removing sysctl.o(i.SysCtlMOSCConfigSet), (12 bytes).
    Removing sysctl.o(i.SysCtlNMIClear), (16 bytes).
    Removing sysctl.o(i.SysCtlNMIStatus), (12 bytes).
    Removing sysctl.o(i.SysCtlPIOSCCalibrate), (76 bytes).
    Removing sysctl.o(i.SysCtlPWMClockGet), (24 bytes).
    Removing sysctl.o(i.SysCtlPWMClockSet), (20 bytes).
    Removing sysctl.o(i.SysCtlPeripheralClockGating), (68 bytes).
    Removing sysctl.o(i.SysCtlPeripheralDeepSleepDisable), (40 bytes).
    Removing sysctl.o(i.SysCtlPeripheralDeepSleepEnable), (40 bytes).
    Removing sysctl.o(i.SysCtlPeripheralDisable), (40 bytes).
    Removing sysctl.o(i.SysCtlPeripheralEnable), (40 bytes).
    Removing sysctl.o(i.SysCtlPeripheralPowerOff), (40 bytes).
    Removing sysctl.o(i.SysCtlPeripheralPowerOn), (40 bytes).
    Removing sysctl.o(i.SysCtlPeripheralPresent), (44 bytes).
    Removing sysctl.o(i.SysCtlPeripheralReady), (44 bytes).
    Removing sysctl.o(i.SysCtlPeripheralReset), (60 bytes).
    Removing sysctl.o(i.SysCtlPeripheralSleepDisable), (40 bytes).
    Removing sysctl.o(i.SysCtlPeripheralSleepEnable), (40 bytes).
    Removing sysctl.o(i.SysCtlReset), (16 bytes).
    Removing sysctl.o(i.SysCtlResetBehaviorGet), (12 bytes).
    Removing sysctl.o(i.SysCtlResetBehaviorSet), (12 bytes).
    Removing sysctl.o(i.SysCtlResetCauseClear), (16 bytes).
    Removing sysctl.o(i.SysCtlResetCauseGet), (12 bytes).
    Removing sysctl.o(i.SysCtlSRAMSizeGet), (16 bytes).
    Removing sysctl.o(i.SysCtlSleep), (4 bytes).
    Removing sysctl.o(i.SysCtlSleepPowerSet), (12 bytes).
    Removing sysctl.o(i.SysCtlUSBPLLDisable), (16 bytes).
    Removing sysctl.o(i.SysCtlUSBPLLEnable), (16 bytes).
    Removing sysctl.o(i.SysCtlVCOGet), (120 bytes).
    Removing sysctl.o(i.SysCtlVoltageEventClear), (16 bytes).
    Removing sysctl.o(i.SysCtlVoltageEventConfig), (12 bytes).
    Removing sysctl.o(i.SysCtlVoltageEventStatus), (12 bytes).
    Removing context.o(i.GrContextClipRegionSet), (112 bytes).
    Removing context.o(i.GrLibInit), (12 bytes).
    Removing string.o(i.GrCodepageMapTableSet), (10 bytes).
    Removing string.o(i.GrFontBaselineGet), (44 bytes).
    Removing string.o(i.GrFontBlockCodepointsGet), (84 bytes).
    Removing string.o(i.GrFontCodepageGet), (32 bytes).
    Removing string.o(i.GrFontHeightGet), (44 bytes).
    Removing string.o(i.GrFontInfoGet), (48 bytes).
    Removing string.o(i.GrFontMaxWidthGet), (44 bytes).
    Removing string.o(i.GrFontNumBlocksGet), (32 bytes).
    Removing string.o(i.GrStringCodepageSet), (6 bytes).
    Removing string.o(i.GrStringGet), (596 bytes).
    Removing string.o(i.GrStringLanguageSet), (48 bytes).
    Removing string.o(i.GrStringNextCharGet), (52 bytes).
    Removing string.o(i.GrStringTableSet), (36 bytes).
    Removing string.o(i.GrStringWidthGet), (192 bytes).
    Removing string.o(.data), (20 bytes).
    Removing rt_cmsis.o(.rev16_text), (4 bytes).
    Removing rt_cmsis.o(.revsh_text), (4 bytes).
    Removing rt_cmsis.o(.rrx_text), (6 bytes).
    Removing rt_cmsis.o(i.isrSemaphoreRelease), (40 bytes).
    Removing rt_cmsis.o(i.osKernelRunning), (36 bytes).
    Removing rt_cmsis.o(i.osMailAlloc), (28 bytes).
    Removing rt_cmsis.o(i.osMailCAlloc), (48 bytes).
    Removing rt_cmsis.o(i.osMailCreate), (44 bytes).
    Removing rt_cmsis.o(i.osMailFree), (28 bytes).
    Removing rt_cmsis.o(i.osMailGet), (22 bytes).
    Removing rt_cmsis.o(i.osMailPut), (20 bytes).
    Removing rt_cmsis.o(i.osMutexCreate), (44 bytes).
    Removing rt_cmsis.o(i.osMutexDelete), (24 bytes).
    Removing rt_cmsis.o(i.osMutexRelease), (24 bytes).
    Removing rt_cmsis.o(i.osMutexWait), (24 bytes).
    Removing rt_cmsis.o(i.osPoolAlloc), (32 bytes).
    Removing rt_cmsis.o(i.osPoolCAlloc), (52 bytes).
    Removing rt_cmsis.o(i.osPoolCreate), (44 bytes).
    Removing rt_cmsis.o(i.osPoolFree), (32 bytes).
    Removing rt_cmsis.o(i.osSemaphoreCreate), (44 bytes).
    Removing rt_cmsis.o(i.osSemaphoreDelete), (24 bytes).
    Removing rt_cmsis.o(i.osSemaphoreRelease), (24 bytes).
    Removing rt_cmsis.o(i.osSemaphoreWait), (24 bytes).
    Removing rt_cmsis.o(i.osSignalClear), (24 bytes).
    Removing rt_cmsis.o(i.osThreadGetId), (24 bytes).
    Removing rt_cmsis.o(i.osThreadGetPriority), (24 bytes).
    Removing rt_cmsis.o(i.osThreadSetPriority), (24 bytes).
    Removing rt_cmsis.o(i.osThreadTerminate), (24 bytes).
    Removing rt_cmsis.o(i.osTimerCreate), (44 bytes).
    Removing rt_cmsis.o(i.osTimerDelete), (24 bytes).
    Removing rt_cmsis.o(i.osTimerStart), (24 bytes).
    Removing rt_cmsis.o(i.osTimerStop), (24 bytes).
    Removing rt_cmsis.o(i.osWait), (4 bytes).
    Removing rt_cmsis.o(i.os_resume), (12 bytes).
    Removing rt_cmsis.o(i.os_suspend), (12 bytes).
    Removing rt_cmsis.o(i.rt_clr_box), (24 bytes).
    Removing rt_cmsis.o(i.rt_timer_remove), (60 bytes).
    Removing rt_cmsis.o(i.svcKernelRunning), (12 bytes).
    Removing rt_cmsis.o(i.svcMailCreate), (66 bytes).
    Removing rt_cmsis.o(i.svcMutexCreate), (28 bytes).
    Removing rt_cmsis.o(i.svcMutexDelete), (26 bytes).
    Removing rt_cmsis.o(i.svcMutexRelease), (34 bytes).
    Removing rt_cmsis.o(i.svcMutexWait), (58 bytes).
    Removing rt_cmsis.o(i.svcPoolCreate), (40 bytes).
    Removing rt_cmsis.o(i.svcSemaphoreCreate), (36 bytes).
    Removing rt_cmsis.o(i.svcSemaphoreDelete), (26 bytes).
    Removing rt_cmsis.o(i.svcSemaphoreRelease), (40 bytes).
    Removing rt_cmsis.o(i.svcSemaphoreWait), (50 bytes).
    Removing rt_cmsis.o(i.svcSignalClear), (36 bytes).
    Removing rt_cmsis.o(i.svcThreadGetPriority), (18 bytes).
    Removing rt_cmsis.o(i.svcThreadSetPriority), (46 bytes).
    Removing rt_cmsis.o(i.svcTimerCreate), (56 bytes).
    Removing rt_cmsis.o(i.svcTimerDelete), (40 bytes).
    Removing rt_cmsis.o(i.svcTimerStart), (100 bytes).
    Removing rt_cmsis.o(i.svcTimerStop), (36 bytes).
    Removing rt_cmsis.o(i.sysMailAlloc), (88 bytes).
    Removing rt_cmsis.o(i.sysMailFree), (96 bytes).
    Removing rt_cmsis.o(i.sysPoolAlloc), (10 bytes).
    Removing rt_cmsis.o(i.sysPoolFree), (20 bytes).
    Removing rt_cmsis.o(i.sysUserTimerUpdate), (48 bytes).
    Removing rt_cmsis.o(i.sysUserTimerWakeupTime), (20 bytes).
    Removing rt_mutex.o(i.rt_mut_delete), (176 bytes).
    Removing cpu.o(.emb_text), (38 bytes).
    Removing interrupt.o(i.IntDisable), (100 bytes).
    Removing interrupt.o(i.IntEnable), (100 bytes).
    Removing interrupt.o(i.IntIsEnabled), (96 bytes).
    Removing interrupt.o(i.IntMasterDisable), (14 bytes).
    Removing interrupt.o(i.IntMasterEnable), (14 bytes).
    Removing interrupt.o(i.IntPendClear), (68 bytes).
    Removing interrupt.o(i.IntPendSet), (84 bytes).
    Removing interrupt.o(i.IntPriorityGet), (28 bytes).
    Removing interrupt.o(i.IntPriorityGroupingGet), (36 bytes).
    Removing interrupt.o(i.IntPriorityGroupingSet), (28 bytes).
    Removing interrupt.o(i.IntPriorityMaskGet), (4 bytes).
    Removing interrupt.o(i.IntPriorityMaskSet), (4 bytes).
    Removing interrupt.o(i.IntPrioritySet), (40 bytes).
    Removing interrupt.o(i.IntRegister), (52 bytes).
    Removing interrupt.o(i.IntTrigger), (12 bytes).
    Removing interrupt.o(i.IntUnregister), (20 bytes).
    Removing interrupt.o(i._IntDefaultHandler), (2 bytes).
    Removing interrupt.o(.constdata), (268 bytes).
    Removing interrupt.o(vtable), (620 bytes).
    Removing charmap.o(i.GrMapISO8859_10_Unicode), (32 bytes).
    Removing charmap.o(i.GrMapISO8859_11_Unicode), (16 bytes).
    Removing charmap.o(i.GrMapISO8859_13_Unicode), (32 bytes).
    Removing charmap.o(i.GrMapISO8859_14_Unicode), (96 bytes).
    Removing charmap.o(i.GrMapISO8859_15_Unicode), (88 bytes).
    Removing charmap.o(i.GrMapISO8859_16_Unicode), (32 bytes).
    Removing charmap.o(i.GrMapISO8859_2_Unicode), (32 bytes).
    Removing charmap.o(i.GrMapISO8859_3_Unicode), (32 bytes).
    Removing charmap.o(i.GrMapISO8859_4_Unicode), (32 bytes).
    Removing charmap.o(i.GrMapISO8859_5_Unicode), (16 bytes).
    Removing charmap.o(i.GrMapISO8859_6_Unicode), (22 bytes).
    Removing charmap.o(i.GrMapISO8859_7_Unicode), (44 bytes).
    Removing charmap.o(i.GrMapISO8859_8_Unicode), (38 bytes).
    Removing charmap.o(i.GrMapISO8859_9_Unicode), (68 bytes).
    Removing charmap.o(i.GrMapUTF16BE_Unicode), (6 bytes).
    Removing charmap.o(i.GrMapUTF16LE_Unicode), (6 bytes).
    Removing charmap.o(i.GrMapUTF16_Unicode), (120 bytes).
    Removing charmap.o(i.GrMapUTF8_Unicode), (146 bytes).
    Removing charmap.o(i.GrMapUnicode_Unicode), (22 bytes).
    Removing charmap.o(i.GrMapWIN1250_Unicode), (32 bytes).
    Removing charmap.o(i.GrMapWIN1251_Unicode), (48 bytes).
    Removing charmap.o(i.GrMapWIN1252_Unicode), (40 bytes).
    Removing charmap.o(i.GrMapWIN1253_Unicode), (48 bytes).
    Removing charmap.o(i.GrMapWIN1254_Unicode), (96 bytes).
    Removing charmap.o(.constdata), (1900 bytes).
    Removing rt_system.o(.emb_text), (0 bytes).
    Removing rt_system.o(i.rt_resume), (136 bytes).
    Removing rt_system.o(i.rt_suspend), (36 bytes).
    Removing rt_system.o(i.rt_tsk_lock), (80 bytes).
    Removing rt_system.o(i.rt_tsk_unlock), (80 bytes).
    Removing rt_event.o(i.rt_evt_clr), (28 bytes).
    Removing rt_event.o(i.rt_evt_get), (12 bytes).
    Removing rt_semaphore.o(i.isr_sem_send), (16 bytes).
    Removing rt_semaphore.o(i.rt_sem_delete), (92 bytes).
    Removing rt_semaphore.o(i.rt_sem_init), (12 bytes).
    Removing rt_semaphore.o(i.rt_sem_send), (42 bytes).
    Removing rt_semaphore.o(i.rt_sem_wait), (64 bytes).
    Removing rt_time.o(i.rt_itv_set), (24 bytes).
    Removing rt_time.o(i.rt_itv_wait), (40 bytes).
    Removing rt_time.o(i.rt_time_get), (12 bytes).
    Removing rt_membox.o(i._calloc_box), (30 bytes).

231 unused section(s) (total 11332 bytes) removed from the image.

==============================================================================

Image Symbol Table

    Local Symbols

    Symbol Name                              Value     Ov Type        Size  Object(Section)

    RESET                                    0x00000000   Section      512  startup_tm4c129.o(RESET)
    ../clib/angel/boardlib.s                 0x00000000   Number         0  boardinit1.o ABSOLUTE
    ../clib/angel/boardlib.s                 0x00000000   Number         0  boardshut.o ABSOLUTE
    ../clib/angel/boardlib.s                 0x00000000   Number         0  boardinit2.o ABSOLUTE
    ../clib/angel/handlers.s                 0x00000000   Number         0  __scatter_zi.o ABSOLUTE
    ../clib/angel/handlers.s                 0x00000000   Number         0  __scatter_copy.o ABSOLUTE
    ../clib/angel/kernel.s                   0x00000000   Number         0  __rtentry2.o ABSOLUTE
    ../clib/angel/kernel.s                   0x00000000   Number         0  __rtentry4.o ABSOLUTE
    ../clib/angel/kernel.s                   0x00000000   Number         0  rtexit2.o ABSOLUTE
    ../clib/angel/kernel.s                   0x00000000   Number         0  rtexit.o ABSOLUTE
    ../clib/angel/kernel.s                   0x00000000   Number         0  __rtentry.o ABSOLUTE
    ../clib/angel/rt.s                       0x00000000   Number         0  aeabi_ldiv0_sigfpe.o ABSOLUTE
    ../clib/angel/rt.s                       0x00000000   Number         0  aeabi_ldiv0.o ABSOLUTE
    ../clib/angel/rt.s                       0x00000000   Number         0  rt_errno_addr_twolibspace.o ABSOLUTE
    ../clib/angel/rt.s                       0x00000000   Number         0  rt_errno_addr_intlibspace.o ABSOLUTE
    ../clib/angel/rt.s                       0x00000000   Number         0  rt_errno_addr.o ABSOLUTE
    ../clib/angel/rt.s                       0x00000000   Number         0  rt_div0.o ABSOLUTE
    ../clib/angel/rt.s                       0x00000000   Number         0  rt_raise.o ABSOLUTE
    ../clib/angel/scatter.s                  0x00000000   Number         0  __scatter.o ABSOLUTE
    ../clib/angel/startup.s                  0x00000000   Number         0  __main.o ABSOLUTE
    ../clib/angel/sys.s                      0x00000000   Number         0  libspace.o ABSOLUTE
    ../clib/angel/sys.s                      0x00000000   Number         0  use_no_semi.o ABSOLUTE
    ../clib/angel/sys.s                      0x00000000   Number         0  indicate_semi.o ABSOLUTE
    ../clib/angel/sys.s                      0x00000000   Number         0  sys_stackheap_outer.o ABSOLUTE
    ../clib/angel/sysapp.c                   0x00000000   Number         0  sys_wrch.o ABSOLUTE
    ../clib/angel/sysapp.c                   0x00000000   Number         0  sys_command.o ABSOLUTE
    ../clib/angel/sysapp.c                   0x00000000   Number         0  sys_exit.o ABSOLUTE
    ../clib/armsys.c                         0x00000000   Number         0  argv_veneer.o ABSOLUTE
    ../clib/armsys.c                         0x00000000   Number         0  argv_veneer.o ABSOLUTE
    ../clib/armsys.c                         0x00000000   Number         0  _get_argv_nomalloc.o ABSOLUTE
    ../clib/armsys.c                         0x00000000   Number         0  no_argv.o ABSOLUTE
    ../clib/fenv.c                           0x00000000   Number         0  _rserrno.o ABSOLUTE
    ../clib/heapalloc.c                      0x00000000   Number         0  hrguard.o ABSOLUTE
    ../clib/heapaux.c                        0x00000000   Number         0  heapauxi.o ABSOLUTE
    ../clib/libinit.s                        0x00000000   Number         0  libshutdown2.o ABSOLUTE
    ../clib/libinit.s                        0x00000000   Number         0  libinit.o ABSOLUTE
    ../clib/libinit.s                        0x00000000   Number         0  libshutdown.o ABSOLUTE
    ../clib/libinit.s                        0x00000000   Number         0  libinit2.o ABSOLUTE
    ../clib/longlong.s                       0x00000000   Number         0  lludivv7m.o ABSOLUTE
    ../clib/longlong.s                       0x00000000   Number         0  llsdiv.o ABSOLUTE
    ../clib/memcpset.s                       0x00000000   Number         0  rt_memcpy_w.o ABSOLUTE
    ../clib/signal.c                         0x00000000   Number         0  defsig_other.o ABSOLUTE
    ../clib/signal.c                         0x00000000   Number         0  defsig_segv_inner.o ABSOLUTE
    ../clib/signal.c                         0x00000000   Number         0  defsig_pvfn_inner.o ABSOLUTE
    ../clib/signal.c                         0x00000000   Number         0  defsig_stak_inner.o ABSOLUTE
    ../clib/signal.c                         0x00000000   Number         0  defsig_rtmem_formal.o ABSOLUTE
    ../clib/signal.c                         0x00000000   Number         0  defsig_rtmem_outer.o ABSOLUTE
    ../clib/signal.c                         0x00000000   Number         0  defsig_rtmem_inner.o ABSOLUTE
    ../clib/signal.c                         0x00000000   Number         0  defsig_rtred_inner.o ABSOLUTE
    ../clib/signal.c                         0x00000000   Number         0  defsig_abrt_inner.o ABSOLUTE
    ../clib/signal.c                         0x00000000   Number         0  defsig_fpe_formal.o ABSOLUTE
    ../clib/signal.c                         0x00000000   Number         0  defsig_fpe_outer.o ABSOLUTE
    ../clib/signal.c                         0x00000000   Number         0  defsig_general.o ABSOLUTE
    ../clib/signal.c                         0x00000000   Number         0  __raise.o ABSOLUTE
    ../clib/signal.c                         0x00000000   Number         0  defsig_cppl_inner.o ABSOLUTE
    ../clib/signal.c                         0x00000000   Number         0  defsig_fpe_inner.o ABSOLUTE
    ../clib/signal.c                         0x00000000   Number         0  defsig_exit.o ABSOLUTE
    ../clib/signal.s                         0x00000000   Number         0  defsig.o ABSOLUTE
    ../clib/stdlib.c                         0x00000000   Number         0  exit.o ABSOLUTE
    ../fplib/basic.s                         0x00000000   Number         0  basic.o ABSOLUTE
    ../fplib/d2f.s                           0x00000000   Number         0  d2f.o ABSOLUTE
    ../fplib/daddsub.s                       0x00000000   Number         0  daddsub_clz.o ABSOLUTE
    ../fplib/dcmpi.s                         0x00000000   Number         0  dcmpi.o ABSOLUTE
    ../fplib/ddiv.s                          0x00000000   Number         0  ddiv.o ABSOLUTE
    ../fplib/dfix.s                          0x00000000   Number         0  dfix.o ABSOLUTE
    ../fplib/dflt.s                          0x00000000   Number         0  dflt_clz.o ABSOLUTE
    ../fplib/dleqf.s                         0x00000000   Number         0  dleqf.o ABSOLUTE
    ../fplib/dmul.s                          0x00000000   Number         0  dmul.o ABSOLUTE
    ../fplib/dnaninf.s                       0x00000000   Number         0  dnaninf.o ABSOLUTE
    ../fplib/dretinf.s                       0x00000000   Number         0  dretinf.o ABSOLUTE
    ../fplib/dsqrt.s                         0x00000000   Number         0  dsqrt_umaal.o ABSOLUTE
    ../fplib/f2d.s                           0x00000000   Number         0  f2d.o ABSOLUTE
    ../fplib/fnaninf.s                       0x00000000   Number         0  fnaninf.o ABSOLUTE
    ../fplib/fpinit.s                        0x00000000   Number         0  fpinit.o ABSOLUTE
    ../fplib/fretinf.s                       0x00000000   Number         0  fretinf.o ABSOLUTE
    ../fplib/usenofp.s                       0x00000000   Number         0  usenofp.o ABSOLUTE
    ../mathlib/atan.c                        0x00000000   Number         0  atan.o ABSOLUTE
    ../mathlib/atan.c                        0x00000000   Number         0  atan_x.o ABSOLUTE
    ../mathlib/cos.c                         0x00000000   Number         0  cos.o ABSOLUTE
    ../mathlib/cos.c                         0x00000000   Number         0  cos_x.o ABSOLUTE
    ../mathlib/cos_i.c                       0x00000000   Number         0  cos_i.o ABSOLUTE
    ../mathlib/dunder.c                      0x00000000   Number         0  dunder.o ABSOLUTE
    ../mathlib/fabs.c                        0x00000000   Number         0  fabs.o ABSOLUTE
    ../mathlib/fpclassify.c                  0x00000000   Number         0  fpclassify.o ABSOLUTE
    ../mathlib/poly.c                        0x00000000   Number         0  poly.o ABSOLUTE
    ../mathlib/rred.c                        0x00000000   Number         0  rred.o ABSOLUTE
    ../mathlib/sin.c                         0x00000000   Number         0  sin.o ABSOLUTE
    ../mathlib/sin.c                         0x00000000   Number         0  sin_x.o ABSOLUTE
    ../mathlib/sin_i.c                       0x00000000   Number         0  sin_i.o ABSOLUTE
    ../mathlib/sin_i.c                       0x00000000   Number         0  sin_i_x.o ABSOLUTE
    ../mathlib/sqrt.c                        0x00000000   Number         0  sqrt.o ABSOLUTE
    ../mathlib/sqrt.c                        0x00000000   Number         0  sqrt_x.o ABSOLUTE
    ..\HAL_CM.c                              0x00000000   Number         0  hal_cm.o ABSOLUTE
    ..\\rt_CMSIS.c                           0x00000000   Number         0  rt_cmsis.o ABSOLUTE
    ..\\rt_System.c                          0x00000000   Number         0  rt_system.o ABSOLUTE
    ..\rt_CMSIS.c                            0x00000000   Number         0  rt_cmsis.o ABSOLUTE
    ..\rt_Event.c                            0x00000000   Number         0  rt_event.o ABSOLUTE
    ..\rt_List.c                             0x00000000   Number         0  rt_list.o ABSOLUTE
    ..\rt_Mailbox.c                          0x00000000   Number         0  rt_mailbox.o ABSOLUTE
    ..\rt_MemBox.c                           0x00000000   Number         0  rt_membox.o ABSOLUTE
    ..\rt_Memory.c                           0x00000000   Number         0  rt_memory.o ABSOLUTE
    ..\rt_Mutex.c                            0x00000000   Number         0  rt_mutex.o ABSOLUTE
    ..\rt_Robin.c                            0x00000000   Number         0  rt_robin.o ABSOLUTE
    ..\rt_Semaphore.c                        0x00000000   Number         0  rt_semaphore.o ABSOLUTE
    ..\rt_System.c                           0x00000000   Number         0  rt_system.o ABSOLUTE
    ..\rt_Task.c                             0x00000000   Number         0  rt_task.o ABSOLUTE
    ..\rt_Time.c                             0x00000000   Number         0  rt_time.o ABSOLUTE
    HAL_CM4.c                                0x00000000   Number         0  hal_cm4.o ABSOLUTE
    HAL_CM4.c                                0x00000000   Number         0  hal_cm4.o ABSOLUTE
    PWM.c                                    0x00000000   Number         0  pwm.o ABSOLUTE
    PWM.c                                    0x00000000   Number         0  pwm.o ABSOLUTE
    RTE\CMSIS\RTX_Conf_CM.c                  0x00000000   Number         0  rtx_conf_cm.o ABSOLUTE
    RTE\Device\TM4C1294NCPDT\startup_TM4C129.s 0x00000000   Number         0  startup_tm4c129.o ABSOLUTE
    RTE\Device\TM4C1294NCPDT\system_TM4C129.c 0x00000000   Number         0  system_tm4c129.o ABSOLUTE
    RTE\\CMSIS\\RTX_Conf_CM.c                0x00000000   Number         0  rtx_conf_cm.o ABSOLUTE
    RTE\\Device\\TM4C1294NCPDT\\system_TM4C129.c 0x00000000   Number         0  system_tm4c129.o ABSOLUTE
    SVC_Table.s                              0x00000000   Number         0  svc_table.o ABSOLUTE
    UART.c                                   0x00000000   Number         0  uart.o ABSOLUTE
    UART.c                                   0x00000000   Number         0  uart.o ABSOLUTE
    cfaf128x128x16.c                         0x00000000   Number         0  cfaf128x128x16.o ABSOLUTE
    charmap.c                                0x00000000   Number         0  charmap.o ABSOLUTE
    context.c                                0x00000000   Number         0  context.o ABSOLUTE
    cpu.c                                    0x00000000   Number         0  cpu.o ABSOLUTE
    cpu.c                                    0x00000000   Number         0  cpu.o ABSOLUTE
    dc.s                                     0x00000000   Number         0  dc.o ABSOLUTE
    exemploTIVA.c                            0x00000000   Number         0  exemplotiva.o ABSOLUTE
    exemploTIVA.c                            0x00000000   Number         0  exemplotiva.o ABSOLUTE
    fonts\fontfixed6x8.c                     0x00000000   Number         0  fontfixed6x8.o ABSOLUTE
    interrupt.c                              0x00000000   Number         0  interrupt.o ABSOLUTE
    string.c                                 0x00000000   Number         0  string.o ABSOLUTE
    sysctl.c                                 0x00000000   Number         0  sysctl.o ABSOLUTE
    sysctl.c                                 0x00000000   Number         0  sysctl.o ABSOLUTE
    timer.c                                  0x00000000   Number         0  timer.o ABSOLUTE
    timer.c                                  0x00000000   Number         0  timer.o ABSOLUTE
    !!!main                                  0x00000200   Section        8  __main.o(!!!main)
    !!!scatter                               0x00000208   Section       52  __scatter.o(!!!scatter)
    !!handler_copy                           0x0000023c   Section       26  __scatter_copy.o(!!handler_copy)
    !!handler_zi                             0x00000258   Section       28  __scatter_zi.o(!!handler_zi)
    .ARM.Collect$$libinit$$00000000          0x00000274   Section        2  libinit.o(.ARM.Collect$$libinit$$00000000)
    .ARM.Collect$$libinit$$00000001          0x00000276   Section        4  libinit2.o(.ARM.Collect$$libinit$$00000001)
    .ARM.Collect$$libinit$$00000004          0x0000027a   Section        0  libinit2.o(.ARM.Collect$$libinit$$00000004)
    .ARM.Collect$$libinit$$0000000A          0x0000027a   Section        0  libinit2.o(.ARM.Collect$$libinit$$0000000A)
    .ARM.Collect$$libinit$$0000000C          0x0000027a   Section        0  libinit2.o(.ARM.Collect$$libinit$$0000000C)
    .ARM.Collect$$libinit$$0000000E          0x0000027a   Section        0  libinit2.o(.ARM.Collect$$libinit$$0000000E)
    .ARM.Collect$$libinit$$00000011          0x0000027a   Section        0  libinit2.o(.ARM.Collect$$libinit$$00000011)
    .ARM.Collect$$libinit$$00000013          0x0000027a   Section        0  libinit2.o(.ARM.Collect$$libinit$$00000013)
    .ARM.Collect$$libinit$$00000015          0x0000027a   Section        0  libinit2.o(.ARM.Collect$$libinit$$00000015)
    .ARM.Collect$$libinit$$00000017          0x0000027a   Section        0  libinit2.o(.ARM.Collect$$libinit$$00000017)
    .ARM.Collect$$libinit$$00000019          0x0000027a   Section        0  libinit2.o(.ARM.Collect$$libinit$$00000019)
    .ARM.Collect$$libinit$$0000001B          0x0000027a   Section        0  libinit2.o(.ARM.Collect$$libinit$$0000001B)
    .ARM.Collect$$libinit$$0000001D          0x0000027a   Section        0  libinit2.o(.ARM.Collect$$libinit$$0000001D)
    .ARM.Collect$$libinit$$0000001F          0x0000027a   Section        0  libinit2.o(.ARM.Collect$$libinit$$0000001F)
    .ARM.Collect$$libinit$$00000021          0x0000027a   Section        0  libinit2.o(.ARM.Collect$$libinit$$00000021)
    .ARM.Collect$$libinit$$00000023          0x0000027a   Section        0  libinit2.o(.ARM.Collect$$libinit$$00000023)
    .ARM.Collect$$libinit$$00000025          0x0000027a   Section        0  libinit2.o(.ARM.Collect$$libinit$$00000025)
    .ARM.Collect$$libinit$$0000002C          0x0000027a   Section        0  libinit2.o(.ARM.Collect$$libinit$$0000002C)
    .ARM.Collect$$libinit$$0000002E          0x0000027a   Section        0  libinit2.o(.ARM.Collect$$libinit$$0000002E)
    .ARM.Collect$$libinit$$00000030          0x0000027a   Section        0  libinit2.o(.ARM.Collect$$libinit$$00000030)
    .ARM.Collect$$libinit$$00000032          0x0000027a   Section        0  libinit2.o(.ARM.Collect$$libinit$$00000032)
    .ARM.Collect$$libinit$$00000033          0x0000027a   Section        2  libinit2.o(.ARM.Collect$$libinit$$00000033)
    .ARM.Collect$$libshutdown$$00000000      0x0000027c   Section        2  libshutdown.o(.ARM.Collect$$libshutdown$$00000000)
    .ARM.Collect$$libshutdown$$00000002      0x0000027e   Section        0  libshutdown2.o(.ARM.Collect$$libshutdown$$00000002)
    .ARM.Collect$$libshutdown$$00000004      0x0000027e   Section        0  libshutdown2.o(.ARM.Collect$$libshutdown$$00000004)
    .ARM.Collect$$libshutdown$$00000007      0x0000027e   Section        0  libshutdown2.o(.ARM.Collect$$libshutdown$$00000007)
    .ARM.Collect$$libshutdown$$0000000A      0x0000027e   Section        0  libshutdown2.o(.ARM.Collect$$libshutdown$$0000000A)
    .ARM.Collect$$libshutdown$$0000000C      0x0000027e   Section        0  libshutdown2.o(.ARM.Collect$$libshutdown$$0000000C)
    .ARM.Collect$$libshutdown$$0000000F      0x0000027e   Section        0  libshutdown2.o(.ARM.Collect$$libshutdown$$0000000F)
    .ARM.Collect$$libshutdown$$00000010      0x0000027e   Section        2  libshutdown2.o(.ARM.Collect$$libshutdown$$00000010)
    .ARM.Collect$$rtentry$$00000000          0x00000280   Section        0  __rtentry.o(.ARM.Collect$$rtentry$$00000000)
    .ARM.Collect$$rtentry$$00000002          0x00000280   Section        0  __rtentry2.o(.ARM.Collect$$rtentry$$00000002)
    .ARM.Collect$$rtentry$$00000004          0x00000280   Section        6  __rtentry4.o(.ARM.Collect$$rtentry$$00000004)
    .ARM.Collect$$rtentry$$00000009          0x00000286   Section        0  __rtentry2.o(.ARM.Collect$$rtentry$$00000009)
    .ARM.Collect$$rtentry$$0000000A          0x00000286   Section        4  __rtentry2.o(.ARM.Collect$$rtentry$$0000000A)
    .ARM.Collect$$rtentry$$0000000B          0x0000028a   Section        8  __rtentry2.o(.ARM.Collect$$rtentry$$0000000B)
    .ARM.Collect$$rtentry$$0000000D          0x00000292   Section        8  __rtentry2.o(.ARM.Collect$$rtentry$$0000000D)
    .ARM.Collect$$rtexit$$00000000           0x0000029a   Section        2  rtexit.o(.ARM.Collect$$rtexit$$00000000)
    .ARM.Collect$$rtexit$$00000002           0x0000029c   Section        0  rtexit2.o(.ARM.Collect$$rtexit$$00000002)
    .ARM.Collect$$rtexit$$00000003           0x0000029c   Section        4  rtexit2.o(.ARM.Collect$$rtexit$$00000003)
    .ARM.Collect$$rtexit$$00000004           0x000002a0   Section        6  rtexit2.o(.ARM.Collect$$rtexit$$00000004)
    .emb_text                                0x000002a8   Section       28  rtx_conf_cm.o(.emb_text)
    $v0                                      0x000002a8   Number         0  rtx_conf_cm.o(.emb_text)
    .emb_text                                0x000002c4   Section      408  hal_cm4.o(.emb_text)
    $v0                                      0x000002c4   Number         0  hal_cm4.o(.emb_text)
    .text                                    0x0000045c   Section        0  exemplotiva.o(.text)
    intToString                              0x0000045d   Thumb Code   202  exemplotiva.o(.text)
    .text                                    0x00001298   Section        0  pwm.o(.text)
    .text                                    0x000013e0   Section        0  timer.o(.text)
    .text                                    0x00001474   Section        0  uart.o(.text)
    .text                                    0x00001574   Section        0  cfaf128x128x16.o(.text)
    swap_ui16                                0x00001575   Thumb Code    10  cfaf128x128x16.o(.text)
    swap_i32                                 0x0000157f   Thumb Code    10  cfaf128x128x16.o(.text)
    cfaf128x128x16SsiTransfer                0x00001589   Thumb Code    46  cfaf128x128x16.o(.text)
    cfaf128x128x16WriteCommand               0x000015b7   Thumb Code    56  cfaf128x128x16.o(.text)
    cfaf128x128x16WriteData                  0x000015ef   Thumb Code    70  cfaf128x128x16.o(.text)
    cfaf128x128x16WriteRegister              0x00001635   Thumb Code    16  cfaf128x128x16.o(.text)
    cfaf128x128x16SetWindow                  0x00001645   Thumb Code   192  cfaf128x128x16.o(.text)
    cfaf128x128x16PixelDraw                  0x000017a5   Thumb Code    10  cfaf128x128x16.o(.text)
    cfaf128x128x16PixelDrawMultiple          0x000017af   Thumb Code   360  cfaf128x128x16.o(.text)
    cfaf128x128x16LineDrawH                  0x00001917   Thumb Code    46  cfaf128x128x16.o(.text)
    cfaf128x128x16LineDrawV                  0x00001945   Thumb Code    60  cfaf128x128x16.o(.text)
    cfaf128x128x16RectFill                   0x00001981   Thumb Code    80  cfaf128x128x16.o(.text)
    cfaf128x128x16ColorTranslate             0x000019d1   Thumb Code    22  cfaf128x128x16.o(.text)
    cfaf128x128x16Flush                      0x000019e7   Thumb Code     2  cfaf128x128x16.o(.text)
    .text                                    0x00001c70   Section        0  rtx_conf_cm.o(.text)
    __tagsym$$used                           0x00001cb7   Number         0  rtx_conf_cm.o(.text)
    __tagsym$$used                           0x00001ccd   Number         0  rtx_conf_cm.o(.text)
    .text                                    0x00001cfc   Section      300  startup_tm4c129.o(.text)
    $v0                                      0x00001cfc   Number         0  startup_tm4c129.o(.text)
    .text                                    0x00001e28   Section        0  system_tm4c129.o(.text)
    .text                                    0x00001e50   Section        8  libspace.o(.text)
    .text                                    0x00001e58   Section      238  lludivv7m.o(.text)
    .text                                    0x00001f46   Section       72  llsdiv.o(.text)
    .text                                    0x00001f8e   Section        0  exit.o(.text)
    .text                                    0x00001fa0   Section      100  rt_memcpy_w.o(.text)
    .text                                    0x00002004   Section        0  heapauxi.o(.text)
    .text                                    0x0000200a   Section        0  _rserrno.o(.text)
    .text                                    0x00002020   Section        4  rt_errno_addr_twolibspace.o(.text)
    .text                                    0x00002024   Section        0  sys_exit.o(.text)
    .text                                    0x00002030   Section       74  sys_stackheap_outer.o(.text)
    .text                                    0x0000207a   Section        2  use_no_semi.o(.text)
    .text                                    0x0000207c   Section        0  indicate_semi.o(.text)
    SVC_TABLE                                0x0000207c   Section        4  svc_table.o(SVC_TABLE)
    i.GrContextFontSet                       0x00002080   Section        0  string.o(i.GrContextFontSet)
    i.GrContextInit                          0x00002088   Section        0  context.o(i.GrContextInit)
    i.GrDefaultStringRenderer                0x000020ec   Section        0  string.o(i.GrDefaultStringRenderer)
    i.GrFontGlyphDataGet                     0x00002204   Section        0  string.o(i.GrFontGlyphDataGet)
    i.GrFontGlyphRender                      0x000022aa   Section        0  string.o(i.GrFontGlyphRender)
    i.GrMapISO8859_1_Unicode                 0x00002532   Section        0  charmap.o(i.GrMapISO8859_1_Unicode)
    i.GrStringDraw                           0x0000253a   Section        0  string.o(i.GrStringDraw)
    i.SysCtlClockFreqSet                     0x0000255c   Section        0  sysctl.o(i.SysCtlClockFreqSet)
    i.UpdateContextCharMapping               0x00002848   Section        0  string.o(i.UpdateContextCharMapping)
    UpdateContextCharMapping                 0x00002849   Thumb Code   108  string.o(i.UpdateContextCharMapping)
    i.__ARM_fpclassify                       0x000028b4   Section        0  fpclassify.o(i.__ARM_fpclassify)
    i.__hardfp_atan                          0x000028e8   Section        0  atan.o(i.__hardfp_atan)
    i.__hardfp_cos                           0x00002bc0   Section        0  cos.o(i.__hardfp_cos)
    i.__hardfp_sin                           0x00002c88   Section        0  sin.o(i.__hardfp_sin)
    i.__hardfp_sqrt                          0x00002d50   Section        0  sqrt.o(i.__hardfp_sqrt)
    i.__ieee754_rem_pio2                     0x00002dd0   Section        0  rred.o(i.__ieee754_rem_pio2)
    i.__kernel_cos                           0x00003208   Section        0  cos_i.o(i.__kernel_cos)
    i.__kernel_poly                          0x00003378   Section        0  poly.o(i.__kernel_poly)
    i.__kernel_sin                           0x00003470   Section        0  sin_i.o(i.__kernel_sin)
    i.__mathlib_dbl_infnan                   0x000035a0   Section        0  dunder.o(i.__mathlib_dbl_infnan)
    i.__mathlib_dbl_invalid                  0x000035b8   Section        0  dunder.o(i.__mathlib_dbl_invalid)
    i.__mathlib_dbl_underflow                0x000035d8   Section        0  dunder.o(i.__mathlib_dbl_underflow)
    i._init_box                              0x000035f8   Section        0  rt_membox.o(i._init_box)
    i.dbg_init                               0x00003640   Section        0  hal_cm.o(i.dbg_init)
    i.dbg_task_notify                        0x00003670   Section        0  hal_cm.o(i.dbg_task_notify)
    i.dbg_task_switch                        0x00003690   Section        0  hal_cm.o(i.dbg_task_switch)
    i.fabs                                   0x000036a0   Section        0  fabs.o(i.fabs)
    i.isrMessageGet                          0x000036b8   Section        0  rt_cmsis.o(i.isrMessageGet)
    i.isrMessagePut                          0x000036e2   Section        0  rt_cmsis.o(i.isrMessagePut)
    i.isrSignalSet                           0x0000370e   Section        0  rt_cmsis.o(i.isrSignalSet)
    i.isr_evt_set                            0x00003734   Section        0  rt_event.o(i.isr_evt_set)
    i.isr_mbx_receive                        0x0000375c   Section        0  rt_mailbox.o(i.isr_mbx_receive)
    i.isr_mbx_send                           0x000037b2   Section        0  rt_mailbox.o(i.isr_mbx_send)
    i.osDelay                                0x000037c0   Section        0  rt_cmsis.o(i.osDelay)
    i.osKernelInitialize                     0x000037d8   Section        0  rt_cmsis.o(i.osKernelInitialize)
    i.osKernelStart                          0x000037fc   Section        0  rt_cmsis.o(i.osKernelStart)
    i.osKernelSysTick                        0x00003868   Section        0  rt_cmsis.o(i.osKernelSysTick)
    i.osMessageCreate                        0x00003880   Section        0  rt_cmsis.o(i.osMessageCreate)
    i.osMessageGet                           0x000038ac   Section        0  rt_cmsis.o(i.osMessageGet)
    i.osMessagePut                           0x000038c4   Section        0  rt_cmsis.o(i.osMessagePut)
    i.osSignalSet                            0x000038dc   Section        0  rt_cmsis.o(i.osSignalSet)
    i.osSignalWait                           0x000038f4   Section        0  rt_cmsis.o(i.osSignalWait)
    i.osThreadCreate                         0x0000390c   Section        0  rt_cmsis.o(i.osThreadCreate)
    i.osThreadExit                           0x00003938   Section        0  rt_cmsis.o(i.osThreadExit)
    i.osThreadYield                          0x00003950   Section        0  rt_cmsis.o(i.osThreadYield)
    i.osTimerCall                            0x00003968   Section        0  rt_cmsis.o(i.osTimerCall)
    i.osTimerThread                          0x00003974   Section        0  rt_cmsis.o(i.osTimerThread)
    i.os_tick_init                           0x000039a0   Section        0  rt_system.o(i.os_tick_init)
    i.os_tick_irqack                         0x000039c8   Section        0  rt_system.o(i.os_tick_irqack)
    i.os_tick_ovf                            0x000039cc   Section        0  rt_system.o(i.os_tick_ovf)
    i.os_tick_val                            0x000039dc   Section        0  rt_system.o(i.os_tick_val)
    i.rt_alloc_box                           0x000039f0   Section        0  rt_membox.o(i.rt_alloc_box)
    i.rt_alloc_mem                           0x00003a0a   Section        0  rt_memory.o(i.rt_alloc_mem)
    i.rt_block                               0x00003a48   Section        0  rt_task.o(i.rt_block)
    i.rt_chk_robin                           0x00003a80   Section        0  rt_robin.o(i.rt_chk_robin)
    i.rt_dec_dly                             0x00003ac8   Section        0  rt_list.o(i.rt_dec_dly)
    i.rt_dispatch                            0x00003b38   Section        0  rt_task.o(i.rt_dispatch)
    i.rt_dly_wait                            0x00003b7c   Section        0  rt_time.o(i.rt_dly_wait)
    i.rt_evt_psh                             0x00003b84   Section        0  rt_event.o(i.rt_evt_psh)
    i.rt_evt_set                             0x00003bd4   Section        0  rt_event.o(i.rt_evt_set)
    i.rt_evt_wait                            0x00003c30   Section        0  rt_event.o(i.rt_evt_wait)
    i.rt_free_box                            0x00003c6c   Section        0  rt_membox.o(i.rt_free_box)
    i.rt_free_mem                            0x00003c98   Section        0  rt_memory.o(i.rt_free_mem)
    i.rt_get_first                           0x00003cc0   Section        0  rt_list.o(i.rt_get_first)
    i.rt_get_same_rdy_prio                   0x00003ce8   Section        0  rt_list.o(i.rt_get_same_rdy_prio)
    i.rt_id2obj                              0x00003d0c   Section        0  rt_cmsis.o(i.rt_id2obj)
    rt_id2obj                                0x00003d0d   Thumb Code     8  rt_cmsis.o(i.rt_id2obj)
    i.rt_init_context                        0x00003d14   Section        0  rt_task.o(i.rt_init_context)
    rt_init_context                          0x00003d15   Thumb Code    66  rt_task.o(i.rt_init_context)
    i.rt_init_mem                            0x00003d5c   Section        0  rt_memory.o(i.rt_init_mem)
    i.rt_init_robin                          0x00003d78   Section        0  rt_robin.o(i.rt_init_robin)
    i.rt_init_stack                          0x00003d90   Section        0  hal_cm.o(i.rt_init_stack)
    i.rt_mbx_check                           0x00003e10   Section        0  rt_mailbox.o(i.rt_mbx_check)
    i.rt_mbx_init                            0x00003e18   Section        0  rt_mailbox.o(i.rt_mbx_init)
    i.rt_mbx_psh                             0x00003e34   Section        0  rt_mailbox.o(i.rt_mbx_psh)
    i.rt_mbx_send                            0x00003f24   Section        0  rt_mailbox.o(i.rt_mbx_send)
    i.rt_mbx_wait                            0x00003fbc   Section        0  rt_mailbox.o(i.rt_mbx_wait)
    i.rt_ms2tick                             0x00004070   Section        0  rt_cmsis.o(i.rt_ms2tick)
    rt_ms2tick                               0x00004071   Thumb Code    58  rt_cmsis.o(i.rt_ms2tick)
    i.rt_mut_init                            0x000040b4   Section        0  rt_mutex.o(i.rt_mut_init)
    i.rt_mut_release                         0x000040c4   Section        0  rt_mutex.o(i.rt_mut_release)
    i.rt_mut_wait                            0x0000419c   Section        0  rt_mutex.o(i.rt_mut_wait)
    i.rt_pop_req                             0x00004214   Section        0  rt_system.o(i.rt_pop_req)
    i.rt_psh_req                             0x00004290   Section        0  rt_system.o(i.rt_psh_req)
    i.rt_psq_enq                             0x000042b0   Section        0  rt_list.o(i.rt_psq_enq)
    i.rt_put_dly                             0x0000430c   Section        0  rt_list.o(i.rt_put_dly)
    i.rt_put_prio                            0x00004354   Section        0  rt_list.o(i.rt_put_prio)
    i.rt_put_rdy_first                       0x0000438c   Section        0  rt_list.o(i.rt_put_rdy_first)
    i.rt_resort_prio                         0x000043a0   Section        0  rt_list.o(i.rt_resort_prio)
    i.rt_ret_regs                            0x000043d4   Section        0  hal_cm.o(i.rt_ret_regs)
    rt_ret_regs                              0x000043d5   Thumb Code    16  hal_cm.o(i.rt_ret_regs)
    i.rt_ret_val                             0x000043e4   Section        0  hal_cm.o(i.rt_ret_val)
    i.rt_ret_val2                            0x000043f0   Section        0  hal_cm.o(i.rt_ret_val2)
    i.rt_rmv_dly                             0x00004400   Section        0  rt_list.o(i.rt_rmv_dly)
    i.rt_rmv_list                            0x00004428   Section        0  rt_list.o(i.rt_rmv_list)
    i.rt_sem_psh                             0x00004458   Section        0  rt_semaphore.o(i.rt_sem_psh)
    i.rt_stk_check                           0x0000448c   Section        0  rt_system.o(i.rt_stk_check)
    i.rt_switch_req                          0x000044b0   Section        0  rt_task.o(i.rt_switch_req)
    i.rt_sys_init                            0x000044d8   Section        0  rt_task.o(i.rt_sys_init)
    i.rt_sys_start                           0x000045a4   Section        0  rt_task.o(i.rt_sys_start)
    i.rt_systick                             0x0000461c   Section        0  rt_system.o(i.rt_systick)
    i.rt_tid2ptcb                            0x0000465c   Section        0  rt_cmsis.o(i.rt_tid2ptcb)
    rt_tid2ptcb                              0x0000465d   Thumb Code    18  rt_cmsis.o(i.rt_tid2ptcb)
    i.rt_timer_insert                        0x00004670   Section        0  rt_cmsis.o(i.rt_timer_insert)
    rt_timer_insert                          0x00004671   Thumb Code    48  rt_cmsis.o(i.rt_timer_insert)
    i.rt_tsk_create                          0x000046a4   Section        0  rt_task.o(i.rt_tsk_create)
    i.rt_tsk_delete                          0x0000472c   Section        0  rt_task.o(i.rt_tsk_delete)
    i.rt_tsk_pass                            0x000048a8   Section        0  rt_task.o(i.rt_tsk_pass)
    i.rt_tsk_prio                            0x000048d8   Section        0  rt_task.o(i.rt_tsk_prio)
    i.rt_tsk_self                            0x00004954   Section        0  rt_task.o(i.rt_tsk_self)
    i.svcDelay                               0x00004964   Section        0  rt_cmsis.o(i.svcDelay)
    i.svcKernelInitialize                    0x00004978   Section        0  rt_cmsis.o(i.svcKernelInitialize)
    i.svcKernelStart                         0x000049e8   Section        0  rt_cmsis.o(i.svcKernelStart)
    i.svcKernelSysTick                       0x00004a30   Section        0  rt_cmsis.o(i.svcKernelSysTick)
    i.svcMessageCreate                       0x00004a68   Section        0  rt_cmsis.o(i.svcMessageCreate)
    i.svcMessageGet                          0x00004a8c   Section        0  rt_cmsis.o(i.svcMessageGet)
    i.svcMessagePut                          0x00004ac6   Section        0  rt_cmsis.o(i.svcMessagePut)
    i.svcSignalSet                           0x00004afc   Section        0  rt_cmsis.o(i.svcSignalSet)
    i.svcSignalWait                          0x00004b20   Section        0  rt_cmsis.o(i.svcSignalWait)
    i.svcThreadCreate                        0x00004b74   Section        0  rt_cmsis.o(i.svcThreadCreate)
    i.svcThreadGetId                         0x00004be0   Section        0  rt_cmsis.o(i.svcThreadGetId)
    i.svcThreadTerminate                     0x00004bfc   Section        0  rt_cmsis.o(i.svcThreadTerminate)
    i.svcThreadYield                         0x00004c34   Section        0  rt_cmsis.o(i.svcThreadYield)
    i.svcTimerCall                           0x00004c3e   Section        0  rt_cmsis.o(i.svcTimerCall)
    i.sysTimerTick                           0x00004c58   Section        0  rt_cmsis.o(i.sysTimerTick)
    x$fpl$basic                              0x00004cb4   Section       24  basic.o(x$fpl$basic)
    $v0                                      0x00004cb4   Number         0  basic.o(x$fpl$basic)
    x$fpl$d2f                                0x00004ccc   Section       98  d2f.o(x$fpl$d2f)
    $v0                                      0x00004ccc   Number         0  d2f.o(x$fpl$d2f)
    x$fpl$dadd                               0x00004d30   Section      336  daddsub_clz.o(x$fpl$dadd)
    $v0                                      0x00004d30   Number         0  daddsub_clz.o(x$fpl$dadd)
    _dadd1                                   0x00004d41   Thumb Code     0  daddsub_clz.o(x$fpl$dadd)
    x$fpl$ddiv                               0x00004e80   Section      688  ddiv.o(x$fpl$ddiv)
    $v0                                      0x00004e80   Number         0  ddiv.o(x$fpl$ddiv)
    ddiv_entry                               0x00004e87   Thumb Code     0  ddiv.o(x$fpl$ddiv)
    x$fpl$dfix                               0x00005130   Section       94  dfix.o(x$fpl$dfix)
    $v0                                      0x00005130   Number         0  dfix.o(x$fpl$dfix)
    x$fpl$dflt                               0x0000518e   Section       46  dflt_clz.o(x$fpl$dflt)
    $v0                                      0x0000518e   Number         0  dflt_clz.o(x$fpl$dflt)
    x$fpl$dfltu                              0x000051bc   Section       38  dflt_clz.o(x$fpl$dfltu)
    $v0                                      0x000051bc   Number         0  dflt_clz.o(x$fpl$dfltu)
    x$fpl$dmul                               0x000051e4   Section      340  dmul.o(x$fpl$dmul)
    $v0                                      0x000051e4   Number         0  dmul.o(x$fpl$dmul)
    x$fpl$dnaninf                            0x00005338   Section      156  dnaninf.o(x$fpl$dnaninf)
    $v0                                      0x00005338   Number         0  dnaninf.o(x$fpl$dnaninf)
    x$fpl$dretinf                            0x000053d4   Section       12  dretinf.o(x$fpl$dretinf)
    $v0                                      0x000053d4   Number         0  dretinf.o(x$fpl$dretinf)
    x$fpl$drsb                               0x000053e0   Section       22  daddsub_clz.o(x$fpl$drsb)
    $v0                                      0x000053e0   Number         0  daddsub_clz.o(x$fpl$drsb)
    x$fpl$dsqrt                              0x000053f8   Section      408  dsqrt_umaal.o(x$fpl$dsqrt)
    $v0                                      0x000053f8   Number         0  dsqrt_umaal.o(x$fpl$dsqrt)
    x$fpl$dsub                               0x00005590   Section      468  daddsub_clz.o(x$fpl$dsub)
    $v0                                      0x00005590   Number         0  daddsub_clz.o(x$fpl$dsub)
    _dsub1                                   0x000055a1   Thumb Code     0  daddsub_clz.o(x$fpl$dsub)
    x$fpl$f2d                                0x00005764   Section       86  f2d.o(x$fpl$f2d)
    $v0                                      0x00005764   Number         0  f2d.o(x$fpl$f2d)
    x$fpl$fnaninf                            0x000057ba   Section      140  fnaninf.o(x$fpl$fnaninf)
    $v0                                      0x000057ba   Number         0  fnaninf.o(x$fpl$fnaninf)
    x$fpl$fpinit                             0x00005846   Section       10  fpinit.o(x$fpl$fpinit)
    $v0                                      0x00005846   Number         0  fpinit.o(x$fpl$fpinit)
    x$fpl$fretinf                            0x00005850   Section       10  fretinf.o(x$fpl$fretinf)
    $v0                                      0x00005850   Number         0  fretinf.o(x$fpl$fretinf)
    x$fpl$usenofp                            0x0000585a   Section        0  usenofp.o(x$fpl$usenofp)
    .constdata                               0x0000585c   Section      280  exemplotiva.o(.constdata)
    .constdata                               0x00005974   Section       40  cfaf128x128x16.o(.constdata)
    .constdata                               0x0000599c   Section        2  rtx_conf_cm.o(.constdata)
    .constdata                               0x000059a0   Section        4  rtx_conf_cm.o(.constdata)
    .constdata                               0x000059a4   Section        4  rtx_conf_cm.o(.constdata)
    .constdata                               0x000059a8   Section        4  rtx_conf_cm.o(.constdata)
    .constdata                               0x000059ac   Section        1  rtx_conf_cm.o(.constdata)
    .constdata                               0x000059b0   Section       16  rtx_conf_cm.o(.constdata)
    __tagsym$$used                           0x000059b0   Number         0  rtx_conf_cm.o(.constdata)
    __tagsym$$used                           0x000059b4   Number         0  rtx_conf_cm.o(.constdata)
    __tagsym$$used                           0x000059b8   Number         0  rtx_conf_cm.o(.constdata)
    __tagsym$$used                           0x000059bc   Number         0  rtx_conf_cm.o(.constdata)
    .constdata                               0x000059c0   Section        2  rtx_conf_cm.o(.constdata)
    .constdata                               0x000059c4   Section        4  rtx_conf_cm.o(.constdata)
    .constdata                               0x000059c8   Section        4  rtx_conf_cm.o(.constdata)
    .constdata                               0x000059cc   Section        1  rtx_conf_cm.o(.constdata)
    .constdata                               0x000059d0   Section       16  rtx_conf_cm.o(.constdata)
    .constdata                               0x000059e0   Section        8  rtx_conf_cm.o(.constdata)
    .constdata                               0x000059e8   Section        2  rtx_conf_cm.o(.constdata)
    .constdata                               0x000059ec   Section       16  rtx_conf_cm.o(.constdata)
    .constdata                               0x000059fc   Section      596  sysctl.o(.constdata)
    g_pui32VCOFrequencies                    0x000059fc   Data           8  sysctl.o(.constdata)
    g_pui32Xtals                             0x00005a04   Data         108  sysctl.o(.constdata)
    g_pppui32XTALtoVCO                       0x00005a70   Data         432  sysctl.o(.constdata)
    g_sXTALtoMEMTIM                          0x00005c20   Data          48  sysctl.o(.constdata)
    .constdata                               0x00005c50   Section       16  context.o(.constdata)
    .constdata                               0x00005c60   Section      760  fontfixed6x8.o(.constdata)
    g_pui8FontFixed6x8Data                   0x00005c60   Data         760  fontfixed6x8.o(.constdata)
    .constdata                               0x00005f58   Section      200  fontfixed6x8.o(.constdata)
    .constdata                               0x00006020   Section      152  atan.o(.constdata)
    atanhi                                   0x00006020   Data          32  atan.o(.constdata)
    atanlo                                   0x00006040   Data          32  atan.o(.constdata)
    aTodd                                    0x00006060   Data          40  atan.o(.constdata)
    aTeven                                   0x00006088   Data          48  atan.o(.constdata)
    .constdata                               0x000060b8   Section       48  cos_i.o(.constdata)
    C                                        0x000060b8   Data          48  cos_i.o(.constdata)
    .constdata                               0x000060e8   Section      200  rred.o(.constdata)
    pio2s                                    0x000060e8   Data          48  rred.o(.constdata)
    twooverpi                                0x00006118   Data         152  rred.o(.constdata)
    .constdata                               0x000061b0   Section       40  sin_i.o(.constdata)
    S                                        0x000061b0   Data          40  sin_i.o(.constdata)
    .conststring                             0x000061d8   Section       37  exemplotiva.o(.conststring)
    .data                                    0x20000000   Section       48  exemplotiva.o(.data)
    pAscii                                   0x20000000   Data           4  exemplotiva.o(.data)
    .data                                    0x20000030   Section        8  cfaf128x128x16.o(.data)
    _orientation                             0x20000030   Data           1  cfaf128x128x16.o(.data)
    g_ui32SysClock                           0x20000034   Data           4  cfaf128x128x16.o(.data)
    .data                                    0x20000038   Section        4  rtx_conf_cm.o(.data)
    .data                                    0x2000003c   Section        4  rtx_conf_cm.o(.data)
    .data                                    0x20000040   Section        4  rtx_conf_cm.o(.data)
    .data                                    0x20000044   Section        4  rtx_conf_cm.o(.data)
    nr_mutex                                 0x20000044   Data           4  rtx_conf_cm.o(.data)
    .data                                    0x20000048   Section        4  system_tm4c129.o(.data)
    .data                                    0x2000004c   Section        4  context.o(.data)
    g_psGrLibDefaults                        0x2000004c   Data           4  context.o(.data)
    .data                                    0x20000050   Section        8  rt_cmsis.o(.data)
    .data                                    0x20000058   Section        8  rt_task.o(.data)
    .data                                    0x20000060   Section        8  rt_system.o(.data)
    os_lock                                  0x20000060   Data           1  rt_system.o(.data)
    os_psh_flag                              0x20000061   Data           1  rt_system.o(.data)
    pend_flags                               0x20000062   Data           1  rt_system.o(.data)
    .data                                    0x20000068   Section        4  rt_time.o(.data)
    .data                                    0x2000006c   Section        8  rt_robin.o(.data)
    .data                                    0x20000074   Section        1  hal_cm.o(.data)
    .bss                                     0x20000078   Section       36  exemplotiva.o(.bss)
    .bss                                     0x2000009c   Section       36  exemplotiva.o(.bss)
    .bss                                     0x200000c0   Section       36  exemplotiva.o(.bss)
    .bss                                     0x200000e4   Section       36  exemplotiva.o(.bss)
    .bss                                     0x20000108   Section      260  exemplotiva.o(.bss)
    .bss                                     0x2000020c   Section       32  rtx_conf_cm.o(.bss)
    .bss                                     0x2000022c   Section      584  rtx_conf_cm.o(.bss)
    .bss                                     0x20000478   Section     8016  rtx_conf_cm.o(.bss)
    .bss                                     0x200023c8   Section     1032  rtx_conf_cm.o(.bss)
    .bss                                     0x200027d0   Section      132  rtx_conf_cm.o(.bss)
    .bss                                     0x20002854   Section       44  rtx_conf_cm.o(.bss)
    .bss                                     0x20002880   Section     1184  rtx_conf_cm.o(.bss)
    std_libspace                             0x20002880   Data        1056  rtx_conf_cm.o(.bss)
    std_libmutex                             0x20002ca0   Data         128  rtx_conf_cm.o(.bss)
    .bss                                     0x20002d20   Section       52  rt_task.o(.bss)
    .bss                                     0x20002d54   Section       48  rt_list.o(.bss)
    .bss                                     0x20002d84   Section       96  libspace.o(.bss)
    HEAP                                     0x20002de8   Section        0  startup_tm4c129.o(HEAP)
    STACK                                    0x20002de8   Section      512  startup_tm4c129.o(STACK)
    Heap_Mem                                 0x20002de8   Data           0  startup_tm4c129.o(HEAP)
    Stack_Mem                                0x20002de8   Data         512  startup_tm4c129.o(STACK)
    __initial_sp                             0x20002fe8   Data           0  startup_tm4c129.o(STACK)

    Global Symbols

    Symbol Name                              Value     Ov Type        Size  Object(Section)

    BuildAttributes$$THM_ISAv4$E$P$D$K$B$S$7EM$VFPi3$EXTD16$VFPS$VFMA$PE$A:L22UL41UL21$X:L11$S22US41US21$IEEE1$IW$USESV6$~STKCKD$USESV7$~SHL$OTIME$ROPI$IEEEX$EBA8$UX$STANDARDLIB$REQ8$PRES8$EABIv2 0x00000000   Number         0  anon$$obj.o ABSOLUTE
    __ARM_use_no_argv                        0x00000000   Number         0  exemplotiva.o ABSOLUTE
    __Vectors                                0x00000000   Data           4  startup_tm4c129.o(RESET)
    __ARM_exceptions_init                     - Undefined Weak Reference
    __alloca_initialize                       - Undefined Weak Reference
    __arm_preinit_                            - Undefined Weak Reference
    __cpp_initialize__aeabi_                  - Undefined Weak Reference
    __cxa_finalize                            - Undefined Weak Reference
    __rt_locale                               - Undefined Weak Reference
    __sigvec_lookup                           - Undefined Weak Reference
    _atexit_init                              - Undefined Weak Reference
    _call_atexit_fns                          - Undefined Weak Reference
    _clock_init                               - Undefined Weak Reference
    _fp_trap_init                             - Undefined Weak Reference
    _fp_trap_shutdown                         - Undefined Weak Reference
    _get_lc_collate                           - Undefined Weak Reference
    _get_lc_ctype                             - Undefined Weak Reference
    _get_lc_monetary                          - Undefined Weak Reference
    _get_lc_numeric                           - Undefined Weak Reference
    _get_lc_time                              - Undefined Weak Reference
    _getenv_init                              - Undefined Weak Reference
    _handle_redirection                       - Undefined Weak Reference
    _init_alloc                               - Undefined Weak Reference
    _init_user_alloc                          - Undefined Weak Reference
    _initio                                   - Undefined Weak Reference
    _rand_init                                - Undefined Weak Reference
    _signal_finish                            - Undefined Weak Reference
    _signal_init                              - Undefined Weak Reference
    _terminate_alloc                          - Undefined Weak Reference
    _terminate_user_alloc                     - Undefined Weak Reference
    _terminateio                              - Undefined Weak Reference
    __Vectors_End                            0x00000200   Data           0  startup_tm4c129.o(RESET)
    __Vectors_Size                           0x00000200   Number         0  startup_tm4c129.o ABSOLUTE
    __main                                   0x00000201   Thumb Code     8  __main.o(!!!main)
    __scatterload                            0x00000209   Thumb Code     0  __scatter.o(!!!scatter)
    __scatterload_rt2                        0x00000209   Thumb Code    44  __scatter.o(!!!scatter)
    __scatterload_rt2_thumb_only             0x00000209   Thumb Code     0  __scatter.o(!!!scatter)
    __scatterload_null                       0x00000217   Thumb Code     0  __scatter.o(!!!scatter)
    __scatterload_copy                       0x0000023d   Thumb Code    26  __scatter_copy.o(!!handler_copy)
    __scatterload_zeroinit                   0x00000259   Thumb Code    28  __scatter_zi.o(!!handler_zi)
    __rt_lib_init                            0x00000275   Thumb Code     0  libinit.o(.ARM.Collect$$libinit$$00000000)
    __rt_lib_init_fp_1                       0x00000277   Thumb Code     0  libinit2.o(.ARM.Collect$$libinit$$00000001)
    __rt_lib_init_alloca_1                   0x0000027b   Thumb Code     0  libinit2.o(.ARM.Collect$$libinit$$0000002E)
    __rt_lib_init_argv_1                     0x0000027b   Thumb Code     0  libinit2.o(.ARM.Collect$$libinit$$0000002C)
    __rt_lib_init_atexit_1                   0x0000027b   Thumb Code     0  libinit2.o(.ARM.Collect$$libinit$$0000001B)
    __rt_lib_init_clock_1                    0x0000027b   Thumb Code     0  libinit2.o(.ARM.Collect$$libinit$$00000021)
    __rt_lib_init_cpp_1                      0x0000027b   Thumb Code     0  libinit2.o(.ARM.Collect$$libinit$$00000032)
    __rt_lib_init_exceptions_1               0x0000027b   Thumb Code     0  libinit2.o(.ARM.Collect$$libinit$$00000030)
    __rt_lib_init_fp_trap_1                  0x0000027b   Thumb Code     0  libinit2.o(.ARM.Collect$$libinit$$0000001F)
    __rt_lib_init_getenv_1                   0x0000027b   Thumb Code     0  libinit2.o(.ARM.Collect$$libinit$$00000023)
    __rt_lib_init_heap_1                     0x0000027b   Thumb Code     0  libinit2.o(.ARM.Collect$$libinit$$0000000A)
    __rt_lib_init_lc_collate_1               0x0000027b   Thumb Code     0  libinit2.o(.ARM.Collect$$libinit$$00000011)
    __rt_lib_init_lc_ctype_1                 0x0000027b   Thumb Code     0  libinit2.o(.ARM.Collect$$libinit$$00000013)
    __rt_lib_init_lc_monetary_1              0x0000027b   Thumb Code     0  libinit2.o(.ARM.Collect$$libinit$$00000015)
    __rt_lib_init_lc_numeric_1               0x0000027b   Thumb Code     0  libinit2.o(.ARM.Collect$$libinit$$00000017)
    __rt_lib_init_lc_time_1                  0x0000027b   Thumb Code     0  libinit2.o(.ARM.Collect$$libinit$$00000019)
    __rt_lib_init_preinit_1                  0x0000027b   Thumb Code     0  libinit2.o(.ARM.Collect$$libinit$$00000004)
    __rt_lib_init_rand_1                     0x0000027b   Thumb Code     0  libinit2.o(.ARM.Collect$$libinit$$0000000E)
    __rt_lib_init_return                     0x0000027b   Thumb Code     0  libinit2.o(.ARM.Collect$$libinit$$00000033)
    __rt_lib_init_signal_1                   0x0000027b   Thumb Code     0  libinit2.o(.ARM.Collect$$libinit$$0000001D)
    __rt_lib_init_stdio_1                    0x0000027b   Thumb Code     0  libinit2.o(.ARM.Collect$$libinit$$00000025)
    __rt_lib_init_user_alloc_1               0x0000027b   Thumb Code     0  libinit2.o(.ARM.Collect$$libinit$$0000000C)
    __rt_lib_shutdown                        0x0000027d   Thumb Code     0  libshutdown.o(.ARM.Collect$$libshutdown$$00000000)
    __rt_lib_shutdown_cpp_1                  0x0000027f   Thumb Code     0  libshutdown2.o(.ARM.Collect$$libshutdown$$00000002)
    __rt_lib_shutdown_fp_trap_1              0x0000027f   Thumb Code     0  libshutdown2.o(.ARM.Collect$$libshutdown$$00000007)
    __rt_lib_shutdown_heap_1                 0x0000027f   Thumb Code     0  libshutdown2.o(.ARM.Collect$$libshutdown$$0000000F)
    __rt_lib_shutdown_return                 0x0000027f   Thumb Code     0  libshutdown2.o(.ARM.Collect$$libshutdown$$00000010)
    __rt_lib_shutdown_signal_1               0x0000027f   Thumb Code     0  libshutdown2.o(.ARM.Collect$$libshutdown$$0000000A)
    __rt_lib_shutdown_stdio_1                0x0000027f   Thumb Code     0  libshutdown2.o(.ARM.Collect$$libshutdown$$00000004)
    __rt_lib_shutdown_user_alloc_1           0x0000027f   Thumb Code     0  libshutdown2.o(.ARM.Collect$$libshutdown$$0000000C)
    __rt_entry                               0x00000281   Thumb Code     0  __rtentry.o(.ARM.Collect$$rtentry$$00000000)
    __rt_entry_presh_1                       0x00000281   Thumb Code     0  __rtentry2.o(.ARM.Collect$$rtentry$$00000002)
    __rt_entry_sh                            0x00000281   Thumb Code     0  __rtentry4.o(.ARM.Collect$$rtentry$$00000004)
    __rt_entry_li                            0x00000287   Thumb Code     0  __rtentry2.o(.ARM.Collect$$rtentry$$0000000A)
    __rt_entry_postsh_1                      0x00000287   Thumb Code     0  __rtentry2.o(.ARM.Collect$$rtentry$$00000009)
    __rt_entry_postli_1                      0x0000028b   Thumb Code     0  __rtentry2.o(.ARM.Collect$$rtentry$$0000000B)
    __rt_entry_main                          0x00000293   Thumb Code     0  __rtentry2.o(.ARM.Collect$$rtentry$$0000000D)
    __rt_exit                                0x0000029b   Thumb Code     0  rtexit.o(.ARM.Collect$$rtexit$$00000000)
    __rt_exit_ls                             0x0000029d   Thumb Code     0  rtexit2.o(.ARM.Collect$$rtexit$$00000003)
    __rt_exit_prels_1                        0x0000029d   Thumb Code     0  rtexit2.o(.ARM.Collect$$rtexit$$00000002)
    __rt_exit_exit                           0x000002a1   Thumb Code     0  rtexit2.o(.ARM.Collect$$rtexit$$00000004)
    _platform_post_lib_init                  0x000002a9   Thumb Code    24  rtx_conf_cm.o(.emb_text)
    rt_set_PSP                               0x000002c5   Thumb Code     6  hal_cm4.o(.emb_text)
    rt_get_PSP                               0x000002cb   Thumb Code     6  hal_cm4.o(.emb_text)
    os_set_env                               0x000002d1   Thumb Code    24  hal_cm4.o(.emb_text)
    _alloc_box                               0x000002ed   Thumb Code    28  hal_cm4.o(.emb_text)
    _free_box                                0x0000030d   Thumb Code    28  hal_cm4.o(.emb_text)
    SVC_Handler                              0x0000032d   Thumb Code   168  hal_cm4.o(.emb_text)
    PendSV_Handler                           0x000003e5   Thumb Code    96  hal_cm4.o(.emb_text)
    SysTick_Handler                          0x00000449   Thumb Code     8  hal_cm4.o(.emb_text)
    OS_Tick_Handler                          0x00000451   Thumb Code    12  hal_cm4.o(.emb_text)
    __RL_RTX_VER                             0x00000482   Number         0  rt_system.o ABSOLUTE
    charToInt                                0x00000527   Thumb Code     4  exemplotiva.o(.text)
    init_all                                 0x0000052b   Thumb Code    22  exemplotiva.o(.text)
    gerarOnda                                0x00000541   Thumb Code   632  exemplotiva.o(.text)
    calcula_PWM_angulos                      0x000007b9   Thumb Code    64  exemplotiva.o(.text)
    calcula_PWM                              0x000007f9   Thumb Code   366  exemplotiva.o(.text)
    Fibonacci                                0x00000967   Thumb Code    80  exemplotiva.o(.text)
    Gerador_pontos                           0x000009b7   Thumb Code    38  exemplotiva.o(.text)
    Primo                                    0x000009dd   Thumb Code   138  exemplotiva.o(.text)
    Controle                                 0x00000a67   Thumb Code   300  exemplotiva.o(.text)
    UART_Publish                             0x00000b93   Thumb Code    70  exemplotiva.o(.text)
    UART_Subscriber                          0x00000bd9   Thumb Code    52  exemplotiva.o(.text)
    Init_Thread                              0x00000c0d   Thumb Code    94  exemplotiva.o(.text)
    init_sidelong_menu                       0x00000c6b   Thumb Code   406  exemplotiva.o(.text)
    print_display                            0x00000e01   Thumb Code   232  exemplotiva.o(.text)
    update_info                              0x00000ee9   Thumb Code    44  exemplotiva.o(.text)
    stop_thread                              0x00000f15   Thumb Code    28  exemplotiva.o(.text)
    periodic_start                           0x00000f31   Thumb Code    18  exemplotiva.o(.text)
    Escalonador                              0x00000f43   Thumb Code   522  exemplotiva.o(.text)
    main                                     0x0000114d   Thumb Code    46  exemplotiva.o(.text)
    TIMER0A_Handler                          0x0000117b   Thumb Code    34  exemplotiva.o(.text)
    UART0_Handler                            0x0000119d   Thumb Code    22  exemplotiva.o(.text)
    PWM_init                                 0x00001299   Thumb Code   256  pwm.o(.text)
    PWM_set_duty                             0x00001399   Thumb Code    44  pwm.o(.text)
    timer_init                               0x000013e1   Thumb Code    82  timer.o(.text)
    timer_change                             0x00001433   Thumb Code    22  timer.o(.text)
    set_frequency                            0x00001449   Thumb Code    16  timer.o(.text)
    readChar                                 0x00001475   Thumb Code    34  uart.o(.text)
    printChar                                0x00001497   Thumb Code    32  uart.o(.text)
    printString                              0x000014b7   Thumb Code    20  uart.o(.text)
    UART_init                                0x000014cb   Thumb Code   142  uart.o(.text)
    cfaf128x128x16Rect                       0x00001705   Thumb Code   100  cfaf128x128x16.o(.text)
    cfaf128x128x16LineVer                    0x00001769   Thumb Code    22  cfaf128x128x16.o(.text)
    cfaf128x128x16LineHor                    0x0000177f   Thumb Code    16  cfaf128x128x16.o(.text)
    cfaf128x128x16Dot                        0x0000178f   Thumb Code    22  cfaf128x128x16.o(.text)
    cfaf128x128x16SetOrientation             0x000019e9   Thumb Code    70  cfaf128x128x16.o(.text)
    cfaf128x128x16ClearColor                 0x00001a2f   Thumb Code    36  cfaf128x128x16.o(.text)
    cfaf128x128x16Clear                      0x00001a53   Thumb Code     4  cfaf128x128x16.o(.text)
    InitSSICom                               0x00001a57   Thumb Code   138  cfaf128x128x16.o(.text)
    cfaf128x128x16Init                       0x00001ae1   Thumb Code   322  cfaf128x128x16.o(.text)
    os_idle_demon                            0x00001c71   Thumb Code     2  rtx_conf_cm.o(.text)
    os_error                                 0x00001c73   Thumb Code     2  rtx_conf_cm.o(.text)
    __user_perthread_libspace                0x00001c75   Thumb Code    32  rtx_conf_cm.o(.text)
    _mutex_initialize                        0x00001c95   Thumb Code    34  rtx_conf_cm.o(.text)
    _mutex_acquire                           0x00001cb7   Thumb Code    22  rtx_conf_cm.o(.text)
    _mutex_release                           0x00001ccd   Thumb Code    18  rtx_conf_cm.o(.text)
    Reset_Handler                            0x00001cfd   Thumb Code     8  startup_tm4c129.o(.text)
    NMI_Handler                              0x00001d05   Thumb Code     2  startup_tm4c129.o(.text)
    HardFault_Handler                        0x00001d07   Thumb Code     2  startup_tm4c129.o(.text)
    MemManage_Handler                        0x00001d09   Thumb Code     2  startup_tm4c129.o(.text)
    BusFault_Handler                         0x00001d0b   Thumb Code     2  startup_tm4c129.o(.text)
    UsageFault_Handler                       0x00001d0d   Thumb Code     2  startup_tm4c129.o(.text)
    DebugMon_Handler                         0x00001d11   Thumb Code     2  startup_tm4c129.o(.text)
    GPIOA_Handler                            0x00001d17   Thumb Code     2  startup_tm4c129.o(.text)
    GPIOB_Handler                            0x00001d19   Thumb Code     2  startup_tm4c129.o(.text)
    GPIOC_Handler                            0x00001d1b   Thumb Code     2  startup_tm4c129.o(.text)
    GPIOD_Handler                            0x00001d1d   Thumb Code     2  startup_tm4c129.o(.text)
    GPIOE_Handler                            0x00001d1f   Thumb Code     2  startup_tm4c129.o(.text)
    UART1_Handler                            0x00001d23   Thumb Code     2  startup_tm4c129.o(.text)
    SSI0_Handler                             0x00001d25   Thumb Code     2  startup_tm4c129.o(.text)
    I2C0_Handler                             0x00001d27   Thumb Code     2  startup_tm4c129.o(.text)
    PMW0_FAULT_Handler                       0x00001d29   Thumb Code     2  startup_tm4c129.o(.text)
    PWM0_0_Handler                           0x00001d2b   Thumb Code     2  startup_tm4c129.o(.text)
    PWM0_1_Handler                           0x00001d2d   Thumb Code     2  startup_tm4c129.o(.text)
    PWM0_2_Handler                           0x00001d2f   Thumb Code     2  startup_tm4c129.o(.text)
    QEI0_Handler                             0x00001d31   Thumb Code     2  startup_tm4c129.o(.text)
    ADC0SS0_Handler                          0x00001d33   Thumb Code     2  startup_tm4c129.o(.text)
    ADC0SS1_Handler                          0x00001d35   Thumb Code     2  startup_tm4c129.o(.text)
    ADC0SS2_Handler                          0x00001d37   Thumb Code     2  startup_tm4c129.o(.text)
    ADC0SS3_Handler                          0x00001d39   Thumb Code     2  startup_tm4c129.o(.text)
    WDT0_Handler                             0x00001d3b   Thumb Code     2  startup_tm4c129.o(.text)
    TIMER0B_Handler                          0x00001d3f   Thumb Code     2  startup_tm4c129.o(.text)
    TIMER1A_Handler                          0x00001d41   Thumb Code     2  startup_tm4c129.o(.text)
    TIMER1B_Handler                          0x00001d43   Thumb Code     2  startup_tm4c129.o(.text)
    TIMER2A_Handler                          0x00001d45   Thumb Code     2  startup_tm4c129.o(.text)
    TIMER2B_Handler                          0x00001d47   Thumb Code     2  startup_tm4c129.o(.text)
    COMP0_Handler                            0x00001d49   Thumb Code     2  startup_tm4c129.o(.text)
    COMP1_Handler                            0x00001d4b   Thumb Code     2  startup_tm4c129.o(.text)
    COMP2_Handler                            0x00001d4d   Thumb Code     2  startup_tm4c129.o(.text)
    SYSCTL_Handler                           0x00001d4f   Thumb Code     2  startup_tm4c129.o(.text)
    FLASH_Handler                            0x00001d51   Thumb Code     2  startup_tm4c129.o(.text)
    GPIOF_Handler                            0x00001d53   Thumb Code     2  startup_tm4c129.o(.text)
    GPIOG_Handler                            0x00001d55   Thumb Code     2  startup_tm4c129.o(.text)
    GPIOH_Handler                            0x00001d57   Thumb Code     2  startup_tm4c129.o(.text)
    UART2_Handler                            0x00001d59   Thumb Code     2  startup_tm4c129.o(.text)
    SSI1_Handler                             0x00001d5b   Thumb Code     2  startup_tm4c129.o(.text)
    TIMER3A_Handler                          0x00001d5d   Thumb Code     2  startup_tm4c129.o(.text)
    TIMER3B_Handler                          0x00001d5f   Thumb Code     2  startup_tm4c129.o(.text)
    I2C1_Handler                             0x00001d61   Thumb Code     2  startup_tm4c129.o(.text)
    CAN0_Handler                             0x00001d63   Thumb Code     2  startup_tm4c129.o(.text)
    CAN1_Handler                             0x00001d65   Thumb Code     2  startup_tm4c129.o(.text)
    ETH_Handler                              0x00001d67   Thumb Code     2  startup_tm4c129.o(.text)
    HIB_Handler                              0x00001d69   Thumb Code     2  startup_tm4c129.o(.text)
    USB0_Handler                             0x00001d6b   Thumb Code     2  startup_tm4c129.o(.text)
    PWM0_3_Handler                           0x00001d6d   Thumb Code     2  startup_tm4c129.o(.text)
    UDMA_Handler                             0x00001d6f   Thumb Code     2  startup_tm4c129.o(.text)
    UDMAERR_Handler                          0x00001d71   Thumb Code     2  startup_tm4c129.o(.text)
    ADC1SS0_Handler                          0x00001d73   Thumb Code     2  startup_tm4c129.o(.text)
    ADC1SS1_Handler                          0x00001d75   Thumb Code     2  startup_tm4c129.o(.text)
    ADC1SS2_Handler                          0x00001d77   Thumb Code     2  startup_tm4c129.o(.text)
    ADC1SS3_Handler                          0x00001d79   Thumb Code     2  startup_tm4c129.o(.text)
    EBI0_Handler                             0x00001d7b   Thumb Code     2  startup_tm4c129.o(.text)
    GPIOJ_Handler                            0x00001d7d   Thumb Code     2  startup_tm4c129.o(.text)
    GPIOK_Handler                            0x00001d7f   Thumb Code     2  startup_tm4c129.o(.text)
    GPIOL_Handler                            0x00001d81   Thumb Code     2  startup_tm4c129.o(.text)
    SSI2_Handler                             0x00001d83   Thumb Code     2  startup_tm4c129.o(.text)
    SSI3_Handler                             0x00001d85   Thumb Code     2  startup_tm4c129.o(.text)
    UART3_Handler                            0x00001d87   Thumb Code     2  startup_tm4c129.o(.text)
    UART4_Handler                            0x00001d89   Thumb Code     2  startup_tm4c129.o(.text)
    UART5_Handler                            0x00001d8b   Thumb Code     2  startup_tm4c129.o(.text)
    UART6_Handler                            0x00001d8d   Thumb Code     2  startup_tm4c129.o(.text)
    UART7_Handler                            0x00001d8f   Thumb Code     2  startup_tm4c129.o(.text)
    I2C2_Handler                             0x00001d91   Thumb Code     2  startup_tm4c129.o(.text)
    I2C3_Handler                             0x00001d93   Thumb Code     2  startup_tm4c129.o(.text)
    TIMER4A_Handler                          0x00001d95   Thumb Code     2  startup_tm4c129.o(.text)
    TIMER4B_Handler                          0x00001d97   Thumb Code     2  startup_tm4c129.o(.text)
    TIMER5A_Handler                          0x00001d99   Thumb Code     2  startup_tm4c129.o(.text)
    TIMER5B_Handler                          0x00001d9b   Thumb Code     2  startup_tm4c129.o(.text)
    WTIMER0A_Handler                         0x00001d9d   Thumb Code     2  startup_tm4c129.o(.text)
    WTIMER0B_Handler                         0x00001d9f   Thumb Code     2  startup_tm4c129.o(.text)
    WTIMER1A_Handler                         0x00001da1   Thumb Code     2  startup_tm4c129.o(.text)
    WTIMER1B_Handler                         0x00001da3   Thumb Code     2  startup_tm4c129.o(.text)
    WTIMER2A_Handler                         0x00001da5   Thumb Code     2  startup_tm4c129.o(.text)
    WTIMER2B_Handler                         0x00001da7   Thumb Code     2  startup_tm4c129.o(.text)
    WTIMER3A_Handler                         0x00001da9   Thumb Code     2  startup_tm4c129.o(.text)
    WTIMER3B_Handler                         0x00001dab   Thumb Code     2  startup_tm4c129.o(.text)
    WTIMER4A_Handler                         0x00001dad   Thumb Code     2  startup_tm4c129.o(.text)
    WTIMER4B_Handler                         0x00001daf   Thumb Code     2  startup_tm4c129.o(.text)
    WTIMER5A_Handler                         0x00001db1   Thumb Code     2  startup_tm4c129.o(.text)
    WTIMER5B_Handler                         0x00001db3   Thumb Code     2  startup_tm4c129.o(.text)
    FPU_Handler                              0x00001db5   Thumb Code     2  startup_tm4c129.o(.text)
    I2C4_Handler                             0x00001db7   Thumb Code     2  startup_tm4c129.o(.text)
    I2C5_Handler                             0x00001db9   Thumb Code     2  startup_tm4c129.o(.text)
    GPIOM_Handler                            0x00001dbb   Thumb Code     2  startup_tm4c129.o(.text)
    GPION_Handler                            0x00001dbd   Thumb Code     2  startup_tm4c129.o(.text)
    TAMPER_Handler                           0x00001dbf   Thumb Code     2  startup_tm4c129.o(.text)
    GPIOP0_Handler                           0x00001dc1   Thumb Code     2  startup_tm4c129.o(.text)
    GPIOP1_Handler                           0x00001dc3   Thumb Code     2  startup_tm4c129.o(.text)
    GPIOP2_Handler                           0x00001dc5   Thumb Code     2  startup_tm4c129.o(.text)
    GPIOP3_Handler                           0x00001dc7   Thumb Code     2  startup_tm4c129.o(.text)
    GPIOP4_Handler                           0x00001dc9   Thumb Code     2  startup_tm4c129.o(.text)
    GPIOP5_Handler                           0x00001dcb   Thumb Code     2  startup_tm4c129.o(.text)
    GPIOP6_Handler                           0x00001dcd   Thumb Code     2  startup_tm4c129.o(.text)
    GPIOP7_Handler                           0x00001dcf   Thumb Code     2  startup_tm4c129.o(.text)
    GPIOQ0_Handler                           0x00001dd1   Thumb Code     2  startup_tm4c129.o(.text)
    GPIOQ1_Handler                           0x00001dd3   Thumb Code     2  startup_tm4c129.o(.text)
    GPIOQ2_Handler                           0x00001dd5   Thumb Code     2  startup_tm4c129.o(.text)
    GPIOQ3_Handler                           0x00001dd7   Thumb Code     2  startup_tm4c129.o(.text)
    GPIOQ4_Handler                           0x00001dd9   Thumb Code     2  startup_tm4c129.o(.text)
    GPIOQ5_Handler                           0x00001ddb   Thumb Code     2  startup_tm4c129.o(.text)
    GPIOQ6_Handler                           0x00001ddd   Thumb Code     2  startup_tm4c129.o(.text)
    GPIOQ7_Handler                           0x00001ddf   Thumb Code     2  startup_tm4c129.o(.text)
    GPIOR_Handler                            0x00001de1   Thumb Code     2  startup_tm4c129.o(.text)
    GPIOS_Handler                            0x00001de3   Thumb Code     2  startup_tm4c129.o(.text)
    SHAMD5_Handler                           0x00001de5   Thumb Code     2  startup_tm4c129.o(.text)
    AES_Handler                              0x00001de7   Thumb Code     2  startup_tm4c129.o(.text)
    DES3DES_Handler                          0x00001de9   Thumb Code     2  startup_tm4c129.o(.text)
    LCDCONTROLLER_Handler                    0x00001deb   Thumb Code     2  startup_tm4c129.o(.text)
    TIMER6A_Handler                          0x00001ded   Thumb Code     2  startup_tm4c129.o(.text)
    TIMER6B_Handler                          0x00001def   Thumb Code     2  startup_tm4c129.o(.text)
    TIMER7A_Handler                          0x00001df1   Thumb Code     2  startup_tm4c129.o(.text)
    TIMER7B_Handler                          0x00001df3   Thumb Code     2  startup_tm4c129.o(.text)
    I2C6_Handler                             0x00001df5   Thumb Code     2  startup_tm4c129.o(.text)
    I2C7_Handler                             0x00001df7   Thumb Code     2  startup_tm4c129.o(.text)
    HIMSCANKEYBOARD_Handler                  0x00001df9   Thumb Code     2  startup_tm4c129.o(.text)
    ONEWIRE_Handler                          0x00001dfb   Thumb Code     2  startup_tm4c129.o(.text)
    HIMPS2_Handler                           0x00001dfd   Thumb Code     2  startup_tm4c129.o(.text)
    HIMLEDSEQUENCER_Handler                  0x00001dff   Thumb Code     2  startup_tm4c129.o(.text)
    HIMCONSUMERIR_Handler                    0x00001e01   Thumb Code     2  startup_tm4c129.o(.text)
    I2C8_Handler                             0x00001e03   Thumb Code     2  startup_tm4c129.o(.text)
    I2C9_Handler                             0x00001e05   Thumb Code     2  startup_tm4c129.o(.text)
    GPIOT_Handler                            0x00001e07   Thumb Code     2  startup_tm4c129.o(.text)
    __user_initial_stackheap                 0x00001e09   Thumb Code     0  startup_tm4c129.o(.text)
    SystemCoreClockUpdate                    0x00001e29   Thumb Code     8  system_tm4c129.o(.text)
    SystemInit                               0x00001e31   Thumb Code    18  system_tm4c129.o(.text)
    __user_libspace                          0x00001e51   Thumb Code     8  libspace.o(.text)
    __user_perproc_libspace                  0x00001e51   Thumb Code     0  libspace.o(.text)
    __aeabi_uldivmod                         0x00001e59   Thumb Code     0  lludivv7m.o(.text)
    _ll_udiv                                 0x00001e59   Thumb Code   238  lludivv7m.o(.text)
    __aeabi_ldivmod                          0x00001f47   Thumb Code     0  llsdiv.o(.text)
    _ll_sdiv                                 0x00001f47   Thumb Code    72  llsdiv.o(.text)
    exit                                     0x00001f8f   Thumb Code    18  exit.o(.text)
    __aeabi_memcpy4                          0x00001fa1   Thumb Code     0  rt_memcpy_w.o(.text)
    __aeabi_memcpy8                          0x00001fa1   Thumb Code     0  rt_memcpy_w.o(.text)
    __rt_memcpy_w                            0x00001fa1   Thumb Code   100  rt_memcpy_w.o(.text)
    _memcpy_lastbytes_aligned                0x00001fe9   Thumb Code     0  rt_memcpy_w.o(.text)
    __use_two_region_memory                  0x00002005   Thumb Code     2  heapauxi.o(.text)
    __rt_heap_escrow$2region                 0x00002007   Thumb Code     2  heapauxi.o(.text)
    __rt_heap_expand$2region                 0x00002009   Thumb Code     2  heapauxi.o(.text)
    __read_errno                             0x0000200b   Thumb Code    10  _rserrno.o(.text)
    __set_errno                              0x00002015   Thumb Code    12  _rserrno.o(.text)
    __aeabi_errno_addr                       0x00002021   Thumb Code     4  rt_errno_addr_twolibspace.o(.text)
    __errno$twolibspace                      0x00002021   Thumb Code     0  rt_errno_addr_twolibspace.o(.text)
    __rt_errno_addr$twolibspace              0x00002021   Thumb Code     0  rt_errno_addr_twolibspace.o(.text)
    _sys_exit                                0x00002025   Thumb Code     8  sys_exit.o(.text)
    __user_setup_stackheap                   0x00002031   Thumb Code    74  sys_stackheap_outer.o(.text)
    __I$use$semihosting                      0x0000207b   Thumb Code     0  use_no_semi.o(.text)
    __use_no_semihosting_swi                 0x0000207b   Thumb Code     2  use_no_semi.o(.text)
    SVC_Count                                0x0000207c   Data           4  svc_table.o(SVC_TABLE)
    __semihosting_library_function           0x0000207d   Thumb Code     0  indicate_semi.o(.text)
    GrContextFontSet                         0x00002081   Thumb Code     6  string.o(i.GrContextFontSet)
    SVC_Table                                0x00002080   Data           0  svc_table.o(SVC_TABLE)
    GrContextInit                            0x00002089   Thumb Code    88  context.o(i.GrContextInit)
    GrDefaultStringRenderer                  0x000020ed   Thumb Code   280  string.o(i.GrDefaultStringRenderer)
    GrFontGlyphDataGet                       0x00002205   Thumb Code   166  string.o(i.GrFontGlyphDataGet)
    GrFontGlyphRender                        0x000022ab   Thumb Code   648  string.o(i.GrFontGlyphRender)
    GrMapISO8859_1_Unicode                   0x00002533   Thumb Code     8  charmap.o(i.GrMapISO8859_1_Unicode)
    GrStringDraw                             0x0000253b   Thumb Code    32  string.o(i.GrStringDraw)
    SysCtlClockFreqSet                       0x0000255d   Thumb Code   706  sysctl.o(i.SysCtlClockFreqSet)
    __ARM_fpclassify                         0x000028b5   Thumb Code    48  fpclassify.o(i.__ARM_fpclassify)
    __hardfp_atan                            0x000028e9   Thumb Code   622  atan.o(i.__hardfp_atan)
    __hardfp_cos                             0x00002bc1   Thumb Code   180  cos.o(i.__hardfp_cos)
    __hardfp_sin                             0x00002c89   Thumb Code   180  sin.o(i.__hardfp_sin)
    __hardfp_sqrt                            0x00002d51   Thumb Code   122  sqrt.o(i.__hardfp_sqrt)
    __ieee754_rem_pio2                       0x00002dd1   Thumb Code   938  rred.o(i.__ieee754_rem_pio2)
    __kernel_cos                             0x00003209   Thumb Code   322  cos_i.o(i.__kernel_cos)
    __kernel_poly                            0x00003379   Thumb Code   248  poly.o(i.__kernel_poly)
    __kernel_sin                             0x00003471   Thumb Code   280  sin_i.o(i.__kernel_sin)
    __mathlib_dbl_infnan                     0x000035a1   Thumb Code    20  dunder.o(i.__mathlib_dbl_infnan)
    __mathlib_dbl_invalid                    0x000035b9   Thumb Code    24  dunder.o(i.__mathlib_dbl_invalid)
    __mathlib_dbl_underflow                  0x000035d9   Thumb Code    24  dunder.o(i.__mathlib_dbl_underflow)
    _init_box                                0x000035f9   Thumb Code    70  rt_membox.o(i._init_box)
    dbg_init                                 0x00003641   Thumb Code    34  hal_cm.o(i.dbg_init)
    dbg_task_notify                          0x00003671   Thumb Code    32  hal_cm.o(i.dbg_task_notify)
    dbg_task_switch                          0x00003691   Thumb Code    16  hal_cm.o(i.dbg_task_switch)
    fabs                                     0x000036a1   Thumb Code    24  fabs.o(i.fabs)
    isrMessageGet                            0x000036b9   Thumb Code    42  rt_cmsis.o(i.isrMessageGet)
    isrMessagePut                            0x000036e3   Thumb Code    44  rt_cmsis.o(i.isrMessagePut)
    isrSignalSet                             0x0000370f   Thumb Code    36  rt_cmsis.o(i.isrSignalSet)
    isr_evt_set                              0x00003735   Thumb Code    34  rt_event.o(i.isr_evt_set)
    isr_mbx_receive                          0x0000375d   Thumb Code    86  rt_mailbox.o(i.isr_mbx_receive)
    isr_mbx_send                             0x000037b3   Thumb Code    14  rt_mailbox.o(i.isr_mbx_send)
    osDelay                                  0x000037c1   Thumb Code    18  rt_cmsis.o(i.osDelay)
    osKernelInitialize                       0x000037d9   Thumb Code    30  rt_cmsis.o(i.osKernelInitialize)
    osKernelStart                            0x000037fd   Thumb Code    98  rt_cmsis.o(i.osKernelStart)
    osKernelSysTick                          0x00003869   Thumb Code    18  rt_cmsis.o(i.osKernelSysTick)
    osMessageCreate                          0x00003881   Thumb Code    36  rt_cmsis.o(i.osMessageCreate)
    osMessageGet                             0x000038ad   Thumb Code    18  rt_cmsis.o(i.osMessageGet)
    osMessagePut                             0x000038c5   Thumb Code    18  rt_cmsis.o(i.osMessagePut)
    osSignalSet                              0x000038dd   Thumb Code    18  rt_cmsis.o(i.osSignalSet)
    osSignalWait                             0x000038f5   Thumb Code    18  rt_cmsis.o(i.osSignalWait)
    osThreadCreate                           0x0000390d   Thumb Code    36  rt_cmsis.o(i.osThreadCreate)
    osThreadExit                             0x00003939   Thumb Code    14  rt_cmsis.o(i.osThreadExit)
    osThreadYield                            0x00003951   Thumb Code    18  rt_cmsis.o(i.osThreadYield)
    osTimerCall                              0x00003969   Thumb Code     8  rt_cmsis.o(i.osTimerCall)
    osTimerThread                            0x00003975   Thumb Code    38  rt_cmsis.o(i.osTimerThread)
    os_tick_init                             0x000039a1   Thumb Code    32  rt_system.o(i.os_tick_init)
    os_tick_irqack                           0x000039c9   Thumb Code     2  rt_system.o(i.os_tick_irqack)
    os_tick_ovf                              0x000039cd   Thumb Code    10  rt_system.o(i.os_tick_ovf)
    os_tick_val                              0x000039dd   Thumb Code    14  rt_system.o(i.os_tick_val)
    rt_alloc_box                             0x000039f1   Thumb Code    26  rt_membox.o(i.rt_alloc_box)
    rt_alloc_mem                             0x00003a0b   Thumb Code    62  rt_memory.o(i.rt_alloc_mem)
    rt_block                                 0x00003a49   Thumb Code    48  rt_task.o(i.rt_block)
    rt_chk_robin                             0x00003a81   Thumb Code    60  rt_robin.o(i.rt_chk_robin)
    rt_dec_dly                               0x00003ac9   Thumb Code   102  rt_list.o(i.rt_dec_dly)
    rt_dispatch                              0x00003b39   Thumb Code    60  rt_task.o(i.rt_dispatch)
    rt_dly_wait                              0x00003b7d   Thumb Code     6  rt_time.o(i.rt_dly_wait)
    rt_evt_psh                               0x00003b85   Thumb Code    76  rt_event.o(i.rt_evt_psh)
    rt_evt_set                               0x00003bd5   Thumb Code    88  rt_event.o(i.rt_evt_set)
    rt_evt_wait                              0x00003c31   Thumb Code    56  rt_event.o(i.rt_evt_wait)
    rt_free_box                              0x00003c6d   Thumb Code    44  rt_membox.o(i.rt_free_box)
    rt_free_mem                              0x00003c99   Thumb Code    40  rt_memory.o(i.rt_free_mem)
    rt_get_first                             0x00003cc1   Thumb Code    40  rt_list.o(i.rt_get_first)
    rt_get_same_rdy_prio                     0x00003ce9   Thumb Code    26  rt_list.o(i.rt_get_same_rdy_prio)
    rt_init_mem                              0x00003d5d   Thumb Code    26  rt_memory.o(i.rt_init_mem)
    rt_init_robin                            0x00003d79   Thumb Code    14  rt_robin.o(i.rt_init_robin)
    rt_init_stack                            0x00003d91   Thumb Code   118  hal_cm.o(i.rt_init_stack)
    rt_mbx_check                             0x00003e11   Thumb Code     8  rt_mailbox.o(i.rt_mbx_check)
    rt_mbx_init                              0x00003e19   Thumb Code    26  rt_mailbox.o(i.rt_mbx_init)
    rt_mbx_psh                               0x00003e35   Thumb Code   236  rt_mailbox.o(i.rt_mbx_psh)
    rt_mbx_send                              0x00003f25   Thumb Code   148  rt_mailbox.o(i.rt_mbx_send)
    rt_mbx_wait                              0x00003fbd   Thumb Code   174  rt_mailbox.o(i.rt_mbx_wait)
    rt_mut_init                              0x000040b5   Thumb Code    16  rt_mutex.o(i.rt_mut_init)
    rt_mut_release                           0x000040c5   Thumb Code   208  rt_mutex.o(i.rt_mut_release)
    rt_mut_wait                              0x0000419d   Thumb Code   114  rt_mutex.o(i.rt_mut_wait)
    rt_pop_req                               0x00004215   Thumb Code   112  rt_system.o(i.rt_pop_req)
    rt_psh_req                               0x00004291   Thumb Code    22  rt_system.o(i.rt_psh_req)
    rt_psq_enq                               0x000042b1   Thumb Code    88  rt_list.o(i.rt_psq_enq)
    rt_put_dly                               0x0000430d   Thumb Code    68  rt_list.o(i.rt_put_dly)
    rt_put_prio                              0x00004355   Thumb Code    54  rt_list.o(i.rt_put_prio)
    rt_put_rdy_first                         0x0000438d   Thumb Code    14  rt_list.o(i.rt_put_rdy_first)
    rt_resort_prio                           0x000043a1   Thumb Code    46  rt_list.o(i.rt_resort_prio)
    rt_ret_val                               0x000043e5   Thumb Code    12  hal_cm.o(i.rt_ret_val)
    rt_ret_val2                              0x000043f1   Thumb Code    16  hal_cm.o(i.rt_ret_val2)
    rt_rmv_dly                               0x00004401   Thumb Code    40  rt_list.o(i.rt_rmv_dly)
    rt_rmv_list                              0x00004429   Thumb Code    44  rt_list.o(i.rt_rmv_list)
    rt_sem_psh                               0x00004459   Thumb Code    48  rt_semaphore.o(i.rt_sem_psh)
    rt_stk_check                             0x0000448d   Thumb Code    28  rt_system.o(i.rt_stk_check)
    rt_switch_req                            0x000044b1   Thumb Code    30  rt_task.o(i.rt_switch_req)
    rt_sys_init                              0x000044d9   Thumb Code   138  rt_task.o(i.rt_sys_init)
    rt_sys_start                             0x000045a5   Thumb Code   110  rt_task.o(i.rt_sys_start)
    rt_systick                               0x0000461d   Thumb Code    50  rt_system.o(i.rt_systick)
    rt_tsk_create                            0x000046a5   Thumb Code   118  rt_task.o(i.rt_tsk_create)
    rt_tsk_delete                            0x0000472d   Thumb Code   352  rt_task.o(i.rt_tsk_delete)
    rt_tsk_pass                              0x000048a9   Thumb Code    38  rt_task.o(i.rt_tsk_pass)
    rt_tsk_prio                              0x000048d9   Thumb Code   108  rt_task.o(i.rt_tsk_prio)
    rt_tsk_self                              0x00004955   Thumb Code    12  rt_task.o(i.rt_tsk_self)
    svcDelay                                 0x00004965   Thumb Code    18  rt_cmsis.o(i.svcDelay)
    svcKernelInitialize                      0x00004979   Thumb Code    80  rt_cmsis.o(i.svcKernelInitialize)
    svcKernelStart                           0x000049e9   Thumb Code    62  rt_cmsis.o(i.svcKernelStart)
    svcKernelSysTick                         0x00004a31   Thumb Code    46  rt_cmsis.o(i.svcKernelSysTick)
    svcMessageCreate                         0x00004a69   Thumb Code    36  rt_cmsis.o(i.svcMessageCreate)
    svcMessageGet                            0x00004a8d   Thumb Code    58  rt_cmsis.o(i.svcMessageGet)
    svcMessagePut                            0x00004ac7   Thumb Code    54  rt_cmsis.o(i.svcMessagePut)
    svcSignalSet                             0x00004afd   Thumb Code    36  rt_cmsis.o(i.svcSignalSet)
    svcSignalWait                            0x00004b21   Thumb Code    80  rt_cmsis.o(i.svcSignalWait)
    svcThreadCreate                          0x00004b75   Thumb Code    96  rt_cmsis.o(i.svcThreadCreate)
    svcThreadGetId                           0x00004be1   Thumb Code    22  rt_cmsis.o(i.svcThreadGetId)
    svcThreadTerminate                       0x00004bfd   Thumb Code    50  rt_cmsis.o(i.svcThreadTerminate)
    svcThreadYield                           0x00004c35   Thumb Code    10  rt_cmsis.o(i.svcThreadYield)
    svcTimerCall                             0x00004c3f   Thumb Code    24  rt_cmsis.o(i.svcTimerCall)
    sysTimerTick                             0x00004c59   Thumb Code    84  rt_cmsis.o(i.sysTimerTick)
    __aeabi_dneg                             0x00004cb5   Thumb Code     0  basic.o(x$fpl$basic)
    _dneg                                    0x00004cb5   Thumb Code     6  basic.o(x$fpl$basic)
    __aeabi_fneg                             0x00004cbb   Thumb Code     0  basic.o(x$fpl$basic)
    _fneg                                    0x00004cbb   Thumb Code     6  basic.o(x$fpl$basic)
    _dabs                                    0x00004cc1   Thumb Code     6  basic.o(x$fpl$basic)
    _fabs                                    0x00004cc7   Thumb Code     6  basic.o(x$fpl$basic)
    __aeabi_d2f                              0x00004ccd   Thumb Code     0  d2f.o(x$fpl$d2f)
    _d2f                                     0x00004ccd   Thumb Code    98  d2f.o(x$fpl$d2f)
    __aeabi_dadd                             0x00004d31   Thumb Code     0  daddsub_clz.o(x$fpl$dadd)
    _dadd                                    0x00004d31   Thumb Code   332  daddsub_clz.o(x$fpl$dadd)
    __aeabi_ddiv                             0x00004e81   Thumb Code     0  ddiv.o(x$fpl$ddiv)
    _ddiv                                    0x00004e81   Thumb Code   552  ddiv.o(x$fpl$ddiv)
    __aeabi_d2iz                             0x00005131   Thumb Code     0  dfix.o(x$fpl$dfix)
    _dfix                                    0x00005131   Thumb Code    94  dfix.o(x$fpl$dfix)
    __aeabi_i2d                              0x0000518f   Thumb Code     0  dflt_clz.o(x$fpl$dflt)
    _dflt                                    0x0000518f   Thumb Code    46  dflt_clz.o(x$fpl$dflt)
    __aeabi_ui2d                             0x000051bd   Thumb Code     0  dflt_clz.o(x$fpl$dfltu)
    _dfltu                                   0x000051bd   Thumb Code    38  dflt_clz.o(x$fpl$dfltu)
    __aeabi_dmul                             0x000051e5   Thumb Code     0  dmul.o(x$fpl$dmul)
    _dmul                                    0x000051e5   Thumb Code   332  dmul.o(x$fpl$dmul)
    __fpl_dnaninf                            0x00005339   Thumb Code   156  dnaninf.o(x$fpl$dnaninf)
    __fpl_dretinf                            0x000053d5   Thumb Code    12  dretinf.o(x$fpl$dretinf)
    __aeabi_drsub                            0x000053e1   Thumb Code     0  daddsub_clz.o(x$fpl$drsb)
    _drsb                                    0x000053e1   Thumb Code    22  daddsub_clz.o(x$fpl$drsb)
    _dsqrt                                   0x000053f9   Thumb Code   404  dsqrt_umaal.o(x$fpl$dsqrt)
    __aeabi_dsub                             0x00005591   Thumb Code     0  daddsub_clz.o(x$fpl$dsub)
    _dsub                                    0x00005591   Thumb Code   464  daddsub_clz.o(x$fpl$dsub)
    __aeabi_f2d                              0x00005765   Thumb Code     0  f2d.o(x$fpl$f2d)
    _f2d                                     0x00005765   Thumb Code    86  f2d.o(x$fpl$f2d)
    __fpl_fnaninf                            0x000057bb   Thumb Code   140  fnaninf.o(x$fpl$fnaninf)
    _fp_init                                 0x00005847   Thumb Code    10  fpinit.o(x$fpl$fpinit)
    __fplib_config_fpu_vfp                   0x0000584f   Thumb Code     0  fpinit.o(x$fpl$fpinit)
    __fplib_config_pureend_doubles           0x0000584f   Thumb Code     0  fpinit.o(x$fpl$fpinit)
    __fpl_fretinf                            0x00005851   Thumb Code    10  fretinf.o(x$fpl$fretinf)
    __I$use$fp                               0x0000585a   Number         0  usenofp.o(x$fpl$usenofp)
    os_messageQ_def_received_char            0x0000585c   Data           8  exemplotiva.o(.constdata)
    os_messageQ_def_update_int               0x00005864   Data           8  exemplotiva.o(.constdata)
    os_messageQ_def_newPoint                 0x0000586c   Data           8  exemplotiva.o(.constdata)
    os_messageQ_def_exit_status              0x00005874   Data           8  exemplotiva.o(.constdata)
    os_thread_def_Controle                   0x0000587c   Data          16  exemplotiva.o(.constdata)
    os_thread_def_Escalonador                0x0000588c   Data          16  exemplotiva.o(.constdata)
    g_sCfaf128x128x16                        0x00005974   Data          40  cfaf128x128x16.o(.constdata)
    os_maxtaskrun                            0x0000599c   Data           2  rtx_conf_cm.o(.constdata)
    os_stackinfo                             0x000059a0   Data           4  rtx_conf_cm.o(.constdata)
    os_rrobin                                0x000059a4   Data           4  rtx_conf_cm.o(.constdata)
    os_trv                                   0x000059a8   Data           4  rtx_conf_cm.o(.constdata)
    os_flags                                 0x000059ac   Data           1  rtx_conf_cm.o(.constdata)
    CMSIS_RTOS_API_Version                   0x000059b0   Data           4  rtx_conf_cm.o(.constdata)
    CMSIS_RTOS_RTX_Version                   0x000059b4   Data           4  rtx_conf_cm.o(.constdata)
    os_clockrate                             0x000059b8   Data           4  rtx_conf_cm.o(.constdata)
    os_timernum                              0x000059bc   Data           4  rtx_conf_cm.o(.constdata)
    mp_tcb_size                              0x000059c0   Data           2  rtx_conf_cm.o(.constdata)
    mp_stk_size                              0x000059c4   Data           4  rtx_conf_cm.o(.constdata)
    os_stack_sz                              0x000059c8   Data           4  rtx_conf_cm.o(.constdata)
    os_fifo_size                             0x000059cc   Data           1  rtx_conf_cm.o(.constdata)
    os_thread_def_osTimerThread              0x000059d0   Data          16  rtx_conf_cm.o(.constdata)
    os_messageQ_def_osTimerMessageQ          0x000059e0   Data           8  rtx_conf_cm.o(.constdata)
    mp_tmr_size                              0x000059e8   Data           2  rtx_conf_cm.o(.constdata)
    os_thread_def_main                       0x000059ec   Data          16  rtx_conf_cm.o(.constdata)
    g_psDefaultCodePointMapTable             0x00005c50   Data          16  context.o(.constdata)
    g_sFontFixed6x8                          0x00005f58   Data         200  fontfixed6x8.o(.constdata)
    Region$$Table$$Base                      0x00006200   Number         0  anon$$obj.o(Region$$Table)
    Region$$Table$$Limit                     0x00006220   Number         0  anon$$obj.o(Region$$Table)
    tid_Controle                             0x20000004   Data           4  exemplotiva.o(.data)
    tid_UART_Publish                         0x20000008   Data           4  exemplotiva.o(.data)
    tid_UART_Subscriber                      0x2000000c   Data           4  exemplotiva.o(.data)
    tid_Gerador_pontos                       0x20000010   Data           4  exemplotiva.o(.data)
    tid_Fibonacci                            0x20000014   Data           4  exemplotiva.o(.data)
    tid_Primo                                0x20000018   Data           4  exemplotiva.o(.data)
    tid_Escalonador                          0x2000001c   Data           4  exemplotiva.o(.data)
    received_char_id                         0x20000020   Data           4  exemplotiva.o(.data)
    update_int_id                            0x20000024   Data           4  exemplotiva.o(.data)
    newPoint_id                              0x20000028   Data           4  exemplotiva.o(.data)
    tid_exit_status                          0x2000002c   Data           4  exemplotiva.o(.data)
    m_tmr                                    0x20000038   Data           4  rtx_conf_cm.o(.data)
    osThreadId_osTimerThread                 0x2000003c   Data           4  rtx_conf_cm.o(.data)
    osMessageQId_osTimerMessageQ             0x20000040   Data           4  rtx_conf_cm.o(.data)
    SystemCoreClock                          0x20000048   Data           4  system_tm4c129.o(.data)
    os_initialized                           0x20000050   Data           1  rt_cmsis.o(.data)
    os_running                               0x20000051   Data           1  rt_cmsis.o(.data)
    os_timer_head                            0x20000054   Data           4  rt_cmsis.o(.data)
    os_tsk                                   0x20000058   Data           8  rt_task.o(.data)
    os_tick_irqn                             0x20000064   Data           4  rt_system.o(.data)
    os_time                                  0x20000068   Data           4  rt_time.o(.data)
    os_robin                                 0x2000006c   Data           8  rt_robin.o(.data)
    dbg_msg                                  0x20000074   Data           1  hal_cm.o(.data)
    os_messageQ_q_received_char              0x20000078   Data          36  exemplotiva.o(.bss)
    os_messageQ_q_update_int                 0x2000009c   Data          36  exemplotiva.o(.bss)
    os_messageQ_q_newPoint                   0x200000c0   Data          36  exemplotiva.o(.bss)
    os_messageQ_q_exit_status                0x200000e4   Data          36  exemplotiva.o(.bss)
    Threads                                  0x20000108   Data         216  exemplotiva.o(.bss)
    sContext                                 0x200001e0   Data          44  exemplotiva.o(.bss)
    os_messageQ_q_osTimerMessageQ            0x2000020c   Data          32  rtx_conf_cm.o(.bss)
    mp_tcb                                   0x2000022c   Data         584  rtx_conf_cm.o(.bss)
    mp_stk                                   0x20000478   Data        8016  rtx_conf_cm.o(.bss)
    os_stack_mem                             0x200023c8   Data        1032  rtx_conf_cm.o(.bss)
    os_fifo                                  0x200027d0   Data         132  rtx_conf_cm.o(.bss)
    os_active_TCB                            0x20002854   Data          44  rtx_conf_cm.o(.bss)
    os_idle_TCB                              0x20002d20   Data          52  rt_task.o(.bss)
    os_rdy                                   0x20002d54   Data          24  rt_list.o(.bss)
    os_dly                                   0x20002d6c   Data          24  rt_list.o(.bss)
    __libspace_start                         0x20002d84   Data          96  libspace.o(.bss)
    __temporary_stack_top$libspace           0x20002de4   Data           0  libspace.o(.bss)



==============================================================================

Memory Map of the image

  Image Entry point : 0x00000201

  Load Region LR_IROM1 (Base: 0x00000000, Size: 0x00006298, Max: 0x00100000, ABSOLUTE)

    Execution Region ER_IROM1 (Exec base: 0x00000000, Load base: 0x00000000, Size: 0x00006220, Max: 0x00100000, ABSOLUTE)

    Exec Addr    Load Addr    Size         Type   Attr      Idx    E Section Name        Object

    0x00000000   0x00000000   0x00000200   Data   RO          289    RESET               startup_tm4c129.o
    0x00000200   0x00000200   0x00000008   Code   RO         2385  * !!!main             c_w.l(__main.o)
    0x00000208   0x00000208   0x00000034   Code   RO         2686    !!!scatter          c_w.l(__scatter.o)
    0x0000023c   0x0000023c   0x0000001a   Code   RO         2688    !!handler_copy      c_w.l(__scatter_copy.o)
    0x00000256   0x00000256   0x00000002   PAD
    0x00000258   0x00000258   0x0000001c   Code   RO         2690    !!handler_zi        c_w.l(__scatter_zi.o)
    0x00000274   0x00000274   0x00000002   Code   RO         2572    .ARM.Collect$$libinit$$00000000  c_w.l(libinit.o)
    0x00000276   0x00000276   0x00000004   Code   RO         2583    .ARM.Collect$$libinit$$00000001  c_w.l(libinit2.o)
    0x0000027a   0x0000027a   0x00000000   Code   RO         2586    .ARM.Collect$$libinit$$00000004  c_w.l(libinit2.o)
    0x0000027a   0x0000027a   0x00000000   Code   RO         2589    .ARM.Collect$$libinit$$0000000A  c_w.l(libinit2.o)
    0x0000027a   0x0000027a   0x00000000   Code   RO         2591    .ARM.Collect$$libinit$$0000000C  c_w.l(libinit2.o)
    0x0000027a   0x0000027a   0x00000000   Code   RO         2593    .ARM.Collect$$libinit$$0000000E  c_w.l(libinit2.o)
    0x0000027a   0x0000027a   0x00000000   Code   RO         2596    .ARM.Collect$$libinit$$00000011  c_w.l(libinit2.o)
    0x0000027a   0x0000027a   0x00000000   Code   RO         2598    .ARM.Collect$$libinit$$00000013  c_w.l(libinit2.o)
    0x0000027a   0x0000027a   0x00000000   Code   RO         2600    .ARM.Collect$$libinit$$00000015  c_w.l(libinit2.o)
    0x0000027a   0x0000027a   0x00000000   Code   RO         2602    .ARM.Collect$$libinit$$00000017  c_w.l(libinit2.o)
    0x0000027a   0x0000027a   0x00000000   Code   RO         2604    .ARM.Collect$$libinit$$00000019  c_w.l(libinit2.o)
    0x0000027a   0x0000027a   0x00000000   Code   RO         2606    .ARM.Collect$$libinit$$0000001B  c_w.l(libinit2.o)
    0x0000027a   0x0000027a   0x00000000   Code   RO         2608    .ARM.Collect$$libinit$$0000001D  c_w.l(libinit2.o)
    0x0000027a   0x0000027a   0x00000000   Code   RO         2610    .ARM.Collect$$libinit$$0000001F  c_w.l(libinit2.o)
    0x0000027a   0x0000027a   0x00000000   Code   RO         2612    .ARM.Collect$$libinit$$00000021  c_w.l(libinit2.o)
    0x0000027a   0x0000027a   0x00000000   Code   RO         2614    .ARM.Collect$$libinit$$00000023  c_w.l(libinit2.o)
    0x0000027a   0x0000027a   0x00000000   Code   RO         2616    .ARM.Collect$$libinit$$00000025  c_w.l(libinit2.o)
    0x0000027a   0x0000027a   0x00000000   Code   RO         2620    .ARM.Collect$$libinit$$0000002C  c_w.l(libinit2.o)
    0x0000027a   0x0000027a   0x00000000   Code   RO         2622    .ARM.Collect$$libinit$$0000002E  c_w.l(libinit2.o)
    0x0000027a   0x0000027a   0x00000000   Code   RO         2624    .ARM.Collect$$libinit$$00000030  c_w.l(libinit2.o)
    0x0000027a   0x0000027a   0x00000000   Code   RO         2626    .ARM.Collect$$libinit$$00000032  c_w.l(libinit2.o)
    0x0000027a   0x0000027a   0x00000002   Code   RO         2627    .ARM.Collect$$libinit$$00000033  c_w.l(libinit2.o)
    0x0000027c   0x0000027c   0x00000002   Code   RO         2573    .ARM.Collect$$libshutdown$$00000000  c_w.l(libshutdown.o)
    0x0000027e   0x0000027e   0x00000000   Code   RO         2629    .ARM.Collect$$libshutdown$$00000002  c_w.l(libshutdown2.o)
    0x0000027e   0x0000027e   0x00000000   Code   RO         2631    .ARM.Collect$$libshutdown$$00000004  c_w.l(libshutdown2.o)
    0x0000027e   0x0000027e   0x00000000   Code   RO         2634    .ARM.Collect$$libshutdown$$00000007  c_w.l(libshutdown2.o)
    0x0000027e   0x0000027e   0x00000000   Code   RO         2637    .ARM.Collect$$libshutdown$$0000000A  c_w.l(libshutdown2.o)
    0x0000027e   0x0000027e   0x00000000   Code   RO         2639    .ARM.Collect$$libshutdown$$0000000C  c_w.l(libshutdown2.o)
    0x0000027e   0x0000027e   0x00000000   Code   RO         2642    .ARM.Collect$$libshutdown$$0000000F  c_w.l(libshutdown2.o)
    0x0000027e   0x0000027e   0x00000002   Code   RO         2643    .ARM.Collect$$libshutdown$$00000010  c_w.l(libshutdown2.o)
    0x00000280   0x00000280   0x00000000   Code   RO         2463    .ARM.Collect$$rtentry$$00000000  c_w.l(__rtentry.o)
    0x00000280   0x00000280   0x00000000   Code   RO         2526    .ARM.Collect$$rtentry$$00000002  c_w.l(__rtentry2.o)
    0x00000280   0x00000280   0x00000006   Code   RO         2538    .ARM.Collect$$rtentry$$00000004  c_w.l(__rtentry4.o)
    0x00000286   0x00000286   0x00000000   Code   RO         2528    .ARM.Collect$$rtentry$$00000009  c_w.l(__rtentry2.o)
    0x00000286   0x00000286   0x00000004   Code   RO         2529    .ARM.Collect$$rtentry$$0000000A  c_w.l(__rtentry2.o)
    0x0000028a   0x0000028a   0x00000008   Code   RO         2530    .ARM.Collect$$rtentry$$0000000B  c_w.l(__rtentry2.o)
    0x00000292   0x00000292   0x00000008   Code   RO         2532    .ARM.Collect$$rtentry$$0000000D  c_w.l(__rtentry2.o)
    0x0000029a   0x0000029a   0x00000002   Code   RO         2464    .ARM.Collect$$rtexit$$00000000  c_w.l(rtexit.o)
    0x0000029c   0x0000029c   0x00000000   Code   RO         2541    .ARM.Collect$$rtexit$$00000002  c_w.l(rtexit2.o)
    0x0000029c   0x0000029c   0x00000004   Code   RO         2542    .ARM.Collect$$rtexit$$00000003  c_w.l(rtexit2.o)
    0x000002a0   0x000002a0   0x00000006   Code   RO         2543    .ARM.Collect$$rtexit$$00000004  c_w.l(rtexit2.o)
    0x000002a6   0x000002a6   0x00000002   PAD
    0x000002a8   0x000002a8   0x0000001c   Code   RO          233    .emb_text           rtx_conf_cm.o
    0x000002c4   0x000002c4   0x00000198   Code   RO         2357    .emb_text           RTX_CM4.lib(hal_cm4.o)
    0x0000045c   0x0000045c   0x00000e3c   Code   RO            4    .text               exemplotiva.o
    0x00001298   0x00001298   0x00000148   Code   RO          103    .text               pwm.o
    0x000013e0   0x000013e0   0x00000094   Code   RO          130    .text               timer.o
    0x00001474   0x00001474   0x00000100   Code   RO          154    .text               uart.o
    0x00001574   0x00001574   0x000006fc   Code   RO          175    .text               cfaf128x128x16.o
    0x00001c70   0x00001c70   0x0000008c   Code   RO          234    .text               rtx_conf_cm.o
    0x00001cfc   0x00001cfc   0x0000012c   Code   RO          290    .text               startup_tm4c129.o
    0x00001e28   0x00001e28   0x00000028   Code   RO          297    .text               system_tm4c129.o
    0x00001e50   0x00001e50   0x00000008   Code   RO         2372    .text               c_w.l(libspace.o)
    0x00001e58   0x00001e58   0x000000ee   Code   RO         2375    .text               c_w.l(lludivv7m.o)
    0x00001f46   0x00001f46   0x00000048   Code   RO         2377    .text               c_w.l(llsdiv.o)
    0x00001f8e   0x00001f8e   0x00000012   Code   RO         2379    .text               c_w.l(exit.o)
    0x00001fa0   0x00001fa0   0x00000064   Code   RO         2381    .text               c_w.l(rt_memcpy_w.o)
    0x00002004   0x00002004   0x00000006   Code   RO         2383    .text               c_w.l(heapauxi.o)
    0x0000200a   0x0000200a   0x00000016   Code   RO         2470    .text               c_w.l(_rserrno.o)
    0x00002020   0x00002020   0x00000004   Code   RO         2554    .text               c_w.l(rt_errno_addr_twolibspace.o)
    0x00002024   0x00002024   0x0000000c   Code   RO         2558    .text               c_w.l(sys_exit.o)
    0x00002030   0x00002030   0x0000004a   Code   RO         2560    .text               c_w.l(sys_stackheap_outer.o)
    0x0000207a   0x0000207a   0x00000002   Code   RO         2574    .text               c_w.l(use_no_semi.o)
    0x0000207c   0x0000207c   0x00000000   Code   RO         2576    .text               c_w.l(indicate_semi.o)
    0x0000207c   0x0000207c   0x00000004   Code   RO         2367    SVC_TABLE           RTX_CM4.lib(svc_table.o)
    0x00002080   0x00002080   0x00000006   Code   RO          752    i.GrContextFontSet  grlib.lib(string.o)
    0x00002086   0x00002086   0x00000002   PAD
    0x00002088   0x00002088   0x00000064   Code   RO          703    i.GrContextInit     grlib.lib(context.o)
    0x000020ec   0x000020ec   0x00000118   Code   RO          753    i.GrDefaultStringRenderer  grlib.lib(string.o)
    0x00002204   0x00002204   0x000000a6   Code   RO          757    i.GrFontGlyphDataGet  grlib.lib(string.o)
    0x000022aa   0x000022aa   0x00000288   Code   RO          758    i.GrFontGlyphRender  grlib.lib(string.o)
    0x00002532   0x00002532   0x00000008   Code   RO         1745    i.GrMapISO8859_1_Unicode  grlib.lib(charmap.o)
    0x0000253a   0x0000253a   0x00000020   Code   RO          764    i.GrStringDraw      grlib.lib(string.o)
    0x0000255a   0x0000255a   0x00000002   PAD
    0x0000255c   0x0000255c   0x000002ec   Code   RO          329    i.SysCtlClockFreqSet  driverlib.lib(sysctl.o)
    0x00002848   0x00002848   0x0000006c   Code   RO          770    i.UpdateContextCharMapping  grlib.lib(string.o)
    0x000028b4   0x000028b4   0x00000030   Code   RO         2510    i.__ARM_fpclassify  m_wm.l(fpclassify.o)
    0x000028e4   0x000028e4   0x00000004   PAD
    0x000028e8   0x000028e8   0x000002d8   Code   RO         2413    i.__hardfp_atan     m_wm.l(atan.o)
    0x00002bc0   0x00002bc0   0x000000c8   Code   RO         2427    i.__hardfp_cos      m_wm.l(cos.o)
    0x00002c88   0x00002c88   0x000000c8   Code   RO         2439    i.__hardfp_sin      m_wm.l(sin.o)
    0x00002d50   0x00002d50   0x0000007a   Code   RO         2451    i.__hardfp_sqrt     m_wm.l(sqrt.o)
    0x00002dca   0x00002dca   0x00000006   PAD
    0x00002dd0   0x00002dd0   0x00000438   Code   RO         2514    i.__ieee754_rem_pio2  m_wm.l(rred.o)
    0x00003208   0x00003208   0x00000170   Code   RO         2487    i.__kernel_cos      m_wm.l(cos_i.o)
    0x00003378   0x00003378   0x000000f8   Code   RO         2512    i.__kernel_poly     m_wm.l(poly.o)
    0x00003470   0x00003470   0x00000130   Code   RO         2519    i.__kernel_sin      m_wm.l(sin_i.o)
    0x000035a0   0x000035a0   0x00000014   Code   RO         2491    i.__mathlib_dbl_infnan  m_wm.l(dunder.o)
    0x000035b4   0x000035b4   0x00000004   PAD
    0x000035b8   0x000035b8   0x00000020   Code   RO         2493    i.__mathlib_dbl_invalid  m_wm.l(dunder.o)
    0x000035d8   0x000035d8   0x00000020   Code   RO         2496    i.__mathlib_dbl_underflow  m_wm.l(dunder.o)
    0x000035f8   0x000035f8   0x00000046   Code   RO         2251    i._init_box         RTX_CM4.lib(rt_membox.o)
    0x0000363e   0x0000363e   0x00000002   PAD
    0x00003640   0x00003640   0x00000030   Code   RO         2304    i.dbg_init          RTX_CM4.lib(hal_cm.o)
    0x00003670   0x00003670   0x00000020   Code   RO         2305    i.dbg_task_notify   RTX_CM4.lib(hal_cm.o)
    0x00003690   0x00003690   0x00000010   Code   RO         2306    i.dbg_task_switch   RTX_CM4.lib(hal_cm.o)
    0x000036a0   0x000036a0   0x00000018   Code   RO         2506    i.fabs              m_wm.l(fabs.o)
    0x000036b8   0x000036b8   0x0000002a   Code   RO          882    i.isrMessageGet     RTX_CM4.lib(rt_cmsis.o)
    0x000036e2   0x000036e2   0x0000002c   Code   RO          883    i.isrMessagePut     RTX_CM4.lib(rt_cmsis.o)
    0x0000370e   0x0000370e   0x00000024   Code   RO          885    i.isrSignalSet      RTX_CM4.lib(rt_cmsis.o)
    0x00003732   0x00003732   0x00000002   PAD
    0x00003734   0x00003734   0x00000028   Code   RO         1988    i.isr_evt_set       RTX_CM4.lib(rt_event.o)
    0x0000375c   0x0000375c   0x00000056   Code   RO         2106    i.isr_mbx_receive   RTX_CM4.lib(rt_mailbox.o)
    0x000037b2   0x000037b2   0x0000000e   Code   RO         2107    i.isr_mbx_send      RTX_CM4.lib(rt_mailbox.o)
    0x000037c0   0x000037c0   0x00000018   Code   RO          886    i.osDelay           RTX_CM4.lib(rt_cmsis.o)
    0x000037d8   0x000037d8   0x00000024   Code   RO          887    i.osKernelInitialize  RTX_CM4.lib(rt_cmsis.o)
    0x000037fc   0x000037fc   0x0000006c   Code   RO          889    i.osKernelStart     RTX_CM4.lib(rt_cmsis.o)
    0x00003868   0x00003868   0x00000018   Code   RO          890    i.osKernelSysTick   RTX_CM4.lib(rt_cmsis.o)
    0x00003880   0x00003880   0x0000002c   Code   RO          897    i.osMessageCreate   RTX_CM4.lib(rt_cmsis.o)
    0x000038ac   0x000038ac   0x00000018   Code   RO          898    i.osMessageGet      RTX_CM4.lib(rt_cmsis.o)
    0x000038c4   0x000038c4   0x00000018   Code   RO          899    i.osMessagePut      RTX_CM4.lib(rt_cmsis.o)
    0x000038dc   0x000038dc   0x00000018   Code   RO          913    i.osSignalSet       RTX_CM4.lib(rt_cmsis.o)
    0x000038f4   0x000038f4   0x00000018   Code   RO          914    i.osSignalWait      RTX_CM4.lib(rt_cmsis.o)
    0x0000390c   0x0000390c   0x0000002c   Code   RO          915    i.osThreadCreate    RTX_CM4.lib(rt_cmsis.o)
    0x00003938   0x00003938   0x00000018   Code   RO          916    i.osThreadExit      RTX_CM4.lib(rt_cmsis.o)
    0x00003950   0x00003950   0x00000018   Code   RO          921    i.osThreadYield     RTX_CM4.lib(rt_cmsis.o)
    0x00003968   0x00003968   0x0000000c   Code   RO          922    i.osTimerCall       RTX_CM4.lib(rt_cmsis.o)
    0x00003974   0x00003974   0x0000002c   Code   RO          927    i.osTimerThread     RTX_CM4.lib(rt_cmsis.o)
    0x000039a0   0x000039a0   0x00000028   Code   RO         1898    i.os_tick_init      RTX_CM4.lib(rt_system.o)
    0x000039c8   0x000039c8   0x00000002   Code   RO         1899    i.os_tick_irqack    RTX_CM4.lib(rt_system.o)
    0x000039ca   0x000039ca   0x00000002   PAD
    0x000039cc   0x000039cc   0x00000010   Code   RO         1900    i.os_tick_ovf       RTX_CM4.lib(rt_system.o)
    0x000039dc   0x000039dc   0x00000014   Code   RO         1901    i.os_tick_val       RTX_CM4.lib(rt_system.o)
    0x000039f0   0x000039f0   0x0000001a   Code   RO         2252    i.rt_alloc_box      RTX_CM4.lib(rt_membox.o)
    0x00003a0a   0x00003a0a   0x0000003e   Code   RO         2280    i.rt_alloc_mem      RTX_CM4.lib(rt_memory.o)
    0x00003a48   0x00003a48   0x00000038   Code   RO         1501    i.rt_block          RTX_CM4.lib(rt_task.o)
    0x00003a80   0x00003a80   0x00000048   Code   RO         2229    i.rt_chk_robin      RTX_CM4.lib(rt_robin.o)
    0x00003ac8   0x00003ac8   0x00000070   Code   RO         2030    i.rt_dec_dly        RTX_CM4.lib(rt_list.o)
    0x00003b38   0x00003b38   0x00000044   Code   RO         1502    i.rt_dispatch       RTX_CM4.lib(rt_task.o)
    0x00003b7c   0x00003b7c   0x00000006   Code   RO         2196    i.rt_dly_wait       RTX_CM4.lib(rt_time.o)
    0x00003b82   0x00003b82   0x00000002   PAD
    0x00003b84   0x00003b84   0x00000050   Code   RO         1991    i.rt_evt_psh        RTX_CM4.lib(rt_event.o)
    0x00003bd4   0x00003bd4   0x0000005c   Code   RO         1992    i.rt_evt_set        RTX_CM4.lib(rt_event.o)
    0x00003c30   0x00003c30   0x0000003c   Code   RO         1993    i.rt_evt_wait       RTX_CM4.lib(rt_event.o)
    0x00003c6c   0x00003c6c   0x0000002c   Code   RO         2253    i.rt_free_box       RTX_CM4.lib(rt_membox.o)
    0x00003c98   0x00003c98   0x00000028   Code   RO         2281    i.rt_free_mem       RTX_CM4.lib(rt_memory.o)
    0x00003cc0   0x00003cc0   0x00000028   Code   RO         2031    i.rt_get_first      RTX_CM4.lib(rt_list.o)
    0x00003ce8   0x00003ce8   0x00000024   Code   RO         2032    i.rt_get_same_rdy_prio  RTX_CM4.lib(rt_list.o)
    0x00003d0c   0x00003d0c   0x00000008   Code   RO          932    i.rt_id2obj         RTX_CM4.lib(rt_cmsis.o)
    0x00003d14   0x00003d14   0x00000048   Code   RO         1503    i.rt_init_context   RTX_CM4.lib(rt_task.o)
    0x00003d5c   0x00003d5c   0x0000001a   Code   RO         2282    i.rt_init_mem       RTX_CM4.lib(rt_memory.o)
    0x00003d76   0x00003d76   0x00000002   PAD
    0x00003d78   0x00003d78   0x00000018   Code   RO         2230    i.rt_init_robin     RTX_CM4.lib(rt_robin.o)
    0x00003d90   0x00003d90   0x00000080   Code   RO         2307    i.rt_init_stack     RTX_CM4.lib(hal_cm.o)
    0x00003e10   0x00003e10   0x00000008   Code   RO         2108    i.rt_mbx_check      RTX_CM4.lib(rt_mailbox.o)
    0x00003e18   0x00003e18   0x0000001a   Code   RO         2109    i.rt_mbx_init       RTX_CM4.lib(rt_mailbox.o)
    0x00003e32   0x00003e32   0x00000002   PAD
    0x00003e34   0x00003e34   0x000000f0   Code   RO         2110    i.rt_mbx_psh        RTX_CM4.lib(rt_mailbox.o)
    0x00003f24   0x00003f24   0x00000098   Code   RO         2111    i.rt_mbx_send       RTX_CM4.lib(rt_mailbox.o)
    0x00003fbc   0x00003fbc   0x000000b4   Code   RO         2112    i.rt_mbx_wait       RTX_CM4.lib(rt_mailbox.o)
    0x00004070   0x00004070   0x00000044   Code   RO          933    i.rt_ms2tick        RTX_CM4.lib(rt_cmsis.o)
    0x000040b4   0x000040b4   0x00000010   Code   RO         1586    i.rt_mut_init       RTX_CM4.lib(rt_mutex.o)
    0x000040c4   0x000040c4   0x000000d8   Code   RO         1587    i.rt_mut_release    RTX_CM4.lib(rt_mutex.o)
    0x0000419c   0x0000419c   0x00000078   Code   RO         1588    i.rt_mut_wait       RTX_CM4.lib(rt_mutex.o)
    0x00004214   0x00004214   0x0000007c   Code   RO         1902    i.rt_pop_req        RTX_CM4.lib(rt_system.o)
    0x00004290   0x00004290   0x00000020   Code   RO         1903    i.rt_psh_req        RTX_CM4.lib(rt_system.o)
    0x000042b0   0x000042b0   0x0000005c   Code   RO         2033    i.rt_psq_enq        RTX_CM4.lib(rt_list.o)
    0x0000430c   0x0000430c   0x00000048   Code   RO         2034    i.rt_put_dly        RTX_CM4.lib(rt_list.o)
    0x00004354   0x00004354   0x00000036   Code   RO         2035    i.rt_put_prio       RTX_CM4.lib(rt_list.o)
    0x0000438a   0x0000438a   0x00000002   PAD
    0x0000438c   0x0000438c   0x00000014   Code   RO         2036    i.rt_put_rdy_first  RTX_CM4.lib(rt_list.o)
    0x000043a0   0x000043a0   0x00000034   Code   RO         2037    i.rt_resort_prio    RTX_CM4.lib(rt_list.o)
    0x000043d4   0x000043d4   0x00000010   Code   RO         2308    i.rt_ret_regs       RTX_CM4.lib(hal_cm.o)
    0x000043e4   0x000043e4   0x0000000c   Code   RO         2309    i.rt_ret_val        RTX_CM4.lib(hal_cm.o)
    0x000043f0   0x000043f0   0x00000010   Code   RO         2310    i.rt_ret_val2       RTX_CM4.lib(hal_cm.o)
    0x00004400   0x00004400   0x00000028   Code   RO         2038    i.rt_rmv_dly        RTX_CM4.lib(rt_list.o)
    0x00004428   0x00004428   0x00000030   Code   RO         2039    i.rt_rmv_list       RTX_CM4.lib(rt_list.o)
    0x00004458   0x00004458   0x00000034   Code   RO         2157    i.rt_sem_psh        RTX_CM4.lib(rt_semaphore.o)
    0x0000448c   0x0000448c   0x00000024   Code   RO         1905    i.rt_stk_check      RTX_CM4.lib(rt_system.o)
    0x000044b0   0x000044b0   0x00000028   Code   RO         1504    i.rt_switch_req     RTX_CM4.lib(rt_task.o)
    0x000044d8   0x000044d8   0x000000cc   Code   RO         1505    i.rt_sys_init       RTX_CM4.lib(rt_task.o)
    0x000045a4   0x000045a4   0x00000078   Code   RO         1506    i.rt_sys_start      RTX_CM4.lib(rt_task.o)
    0x0000461c   0x0000461c   0x00000040   Code   RO         1907    i.rt_systick        RTX_CM4.lib(rt_system.o)
    0x0000465c   0x0000465c   0x00000012   Code   RO          934    i.rt_tid2ptcb       RTX_CM4.lib(rt_cmsis.o)
    0x0000466e   0x0000466e   0x00000002   PAD
    0x00004670   0x00004670   0x00000034   Code   RO          935    i.rt_timer_insert   RTX_CM4.lib(rt_cmsis.o)
    0x000046a4   0x000046a4   0x00000088   Code   RO         1507    i.rt_tsk_create     RTX_CM4.lib(rt_task.o)
    0x0000472c   0x0000472c   0x0000017c   Code   RO         1508    i.rt_tsk_delete     RTX_CM4.lib(rt_task.o)
    0x000048a8   0x000048a8   0x00000030   Code   RO         1509    i.rt_tsk_pass       RTX_CM4.lib(rt_task.o)
    0x000048d8   0x000048d8   0x0000007c   Code   RO         1510    i.rt_tsk_prio       RTX_CM4.lib(rt_task.o)
    0x00004954   0x00004954   0x00000010   Code   RO         1511    i.rt_tsk_self       RTX_CM4.lib(rt_task.o)
    0x00004964   0x00004964   0x00000012   Code   RO          937    i.svcDelay          RTX_CM4.lib(rt_cmsis.o)
    0x00004976   0x00004976   0x00000002   PAD
    0x00004978   0x00004978   0x00000070   Code   RO          938    i.svcKernelInitialize  RTX_CM4.lib(rt_cmsis.o)
    0x000049e8   0x000049e8   0x00000048   Code   RO          940    i.svcKernelStart    RTX_CM4.lib(rt_cmsis.o)
    0x00004a30   0x00004a30   0x00000038   Code   RO          941    i.svcKernelSysTick  RTX_CM4.lib(rt_cmsis.o)
    0x00004a68   0x00004a68   0x00000024   Code   RO          943    i.svcMessageCreate  RTX_CM4.lib(rt_cmsis.o)
    0x00004a8c   0x00004a8c   0x0000003a   Code   RO          944    i.svcMessageGet     RTX_CM4.lib(rt_cmsis.o)
    0x00004ac6   0x00004ac6   0x00000036   Code   RO          945    i.svcMessagePut     RTX_CM4.lib(rt_cmsis.o)
    0x00004afc   0x00004afc   0x00000024   Code   RO          956    i.svcSignalSet      RTX_CM4.lib(rt_cmsis.o)
    0x00004b20   0x00004b20   0x00000054   Code   RO          957    i.svcSignalWait     RTX_CM4.lib(rt_cmsis.o)
    0x00004b74   0x00004b74   0x0000006c   Code   RO          958    i.svcThreadCreate   RTX_CM4.lib(rt_cmsis.o)
    0x00004be0   0x00004be0   0x0000001c   Code   RO          959    i.svcThreadGetId    RTX_CM4.lib(rt_cmsis.o)
    0x00004bfc   0x00004bfc   0x00000038   Code   RO          962    i.svcThreadTerminate  RTX_CM4.lib(rt_cmsis.o)
    0x00004c34   0x00004c34   0x0000000a   Code   RO          963    i.svcThreadYield    RTX_CM4.lib(rt_cmsis.o)
    0x00004c3e   0x00004c3e   0x00000018   Code   RO          964    i.svcTimerCall      RTX_CM4.lib(rt_cmsis.o)
    0x00004c56   0x00004c56   0x00000002   PAD
    0x00004c58   0x00004c58   0x0000005c   Code   RO          973    i.sysTimerTick      RTX_CM4.lib(rt_cmsis.o)
    0x00004cb4   0x00004cb4   0x00000018   Code   RO         2472    x$fpl$basic         fz_wm.l(basic.o)
    0x00004ccc   0x00004ccc   0x00000062   Code   RO         2387    x$fpl$d2f           fz_wm.l(d2f.o)
    0x00004d2e   0x00004d2e   0x00000002   PAD
    0x00004d30   0x00004d30   0x00000150   Code   RO         2389    x$fpl$dadd          fz_wm.l(daddsub_clz.o)
    0x00004e80   0x00004e80   0x000002b0   Code   RO         2396    x$fpl$ddiv          fz_wm.l(ddiv.o)
    0x00005130   0x00005130   0x0000005e   Code   RO         2399    x$fpl$dfix          fz_wm.l(dfix.o)
    0x0000518e   0x0000518e   0x0000002e   Code   RO         2404    x$fpl$dflt          fz_wm.l(dflt_clz.o)
    0x000051bc   0x000051bc   0x00000026   Code   RO         2403    x$fpl$dfltu         fz_wm.l(dflt_clz.o)
    0x000051e2   0x000051e2   0x00000002   PAD
    0x000051e4   0x000051e4   0x00000154   Code   RO         2409    x$fpl$dmul          fz_wm.l(dmul.o)
    0x00005338   0x00005338   0x0000009c   Code   RO         2476    x$fpl$dnaninf       fz_wm.l(dnaninf.o)
    0x000053d4   0x000053d4   0x0000000c   Code   RO         2478    x$fpl$dretinf       fz_wm.l(dretinf.o)
    0x000053e0   0x000053e0   0x00000016   Code   RO         2390    x$fpl$drsb          fz_wm.l(daddsub_clz.o)
    0x000053f6   0x000053f6   0x00000002   PAD
    0x000053f8   0x000053f8   0x00000198   Code   RO         2480    x$fpl$dsqrt         fz_wm.l(dsqrt_umaal.o)
    0x00005590   0x00005590   0x000001d4   Code   RO         2391    x$fpl$dsub          fz_wm.l(daddsub_clz.o)
    0x00005764   0x00005764   0x00000056   Code   RO         2411    x$fpl$f2d           fz_wm.l(f2d.o)
    0x000057ba   0x000057ba   0x0000008c   Code   RO         2482    x$fpl$fnaninf       fz_wm.l(fnaninf.o)
    0x00005846   0x00005846   0x0000000a   Code   RO         2650    x$fpl$fpinit        fz_wm.l(fpinit.o)
    0x00005850   0x00005850   0x0000000a   Code   RO         2484    x$fpl$fretinf       fz_wm.l(fretinf.o)
    0x0000585a   0x0000585a   0x00000000   Code   RO         2486    x$fpl$usenofp       fz_wm.l(usenofp.o)
    0x0000585a   0x0000585a   0x00000002   PAD
    0x0000585c   0x0000585c   0x00000118   Data   RO           10    .constdata          exemplotiva.o
    0x00005974   0x00005974   0x00000028   Data   RO          188    .constdata          cfaf128x128x16.o
    0x0000599c   0x0000599c   0x00000002   Data   RO          242    .constdata          rtx_conf_cm.o
    0x0000599e   0x0000599e   0x00000002   PAD
    0x000059a0   0x000059a0   0x00000004   Data   RO          243    .constdata          rtx_conf_cm.o
    0x000059a4   0x000059a4   0x00000004   Data   RO          244    .constdata          rtx_conf_cm.o
    0x000059a8   0x000059a8   0x00000004   Data   RO          248    .constdata          rtx_conf_cm.o
    0x000059ac   0x000059ac   0x00000001   Data   RO          249    .constdata          rtx_conf_cm.o
    0x000059ad   0x000059ad   0x00000003   PAD
    0x000059b0   0x000059b0   0x00000010   Data   RO          250    .constdata          rtx_conf_cm.o
    0x000059c0   0x000059c0   0x00000002   Data   RO          251    .constdata          rtx_conf_cm.o
    0x000059c2   0x000059c2   0x00000002   PAD
    0x000059c4   0x000059c4   0x00000004   Data   RO          252    .constdata          rtx_conf_cm.o
    0x000059c8   0x000059c8   0x00000004   Data   RO          253    .constdata          rtx_conf_cm.o
    0x000059cc   0x000059cc   0x00000001   Data   RO          254    .constdata          rtx_conf_cm.o
    0x000059cd   0x000059cd   0x00000003   PAD
    0x000059d0   0x000059d0   0x00000010   Data   RO          255    .constdata          rtx_conf_cm.o
    0x000059e0   0x000059e0   0x00000008   Data   RO          256    .constdata          rtx_conf_cm.o
    0x000059e8   0x000059e8   0x00000002   Data   RO          257    .constdata          rtx_conf_cm.o
    0x000059ea   0x000059ea   0x00000002   PAD
    0x000059ec   0x000059ec   0x00000010   Data   RO          258    .constdata          rtx_conf_cm.o
    0x000059fc   0x000059fc   0x00000254   Data   RO          383    .constdata          driverlib.lib(sysctl.o)
    0x00005c50   0x00005c50   0x00000010   Data   RO          705    .constdata          grlib.lib(context.o)
    0x00005c60   0x00005c60   0x000002f8   Data   RO          737    .constdata          grlib.lib(fontfixed6x8.o)
    0x00005f58   0x00005f58   0x000000c8   Data   RO          738    .constdata          grlib.lib(fontfixed6x8.o)
    0x00006020   0x00006020   0x00000098   Data   RO         2416    .constdata          m_wm.l(atan.o)
    0x000060b8   0x000060b8   0x00000030   Data   RO         2488    .constdata          m_wm.l(cos_i.o)
    0x000060e8   0x000060e8   0x000000c8   Data   RO         2516    .constdata          m_wm.l(rred.o)
    0x000061b0   0x000061b0   0x00000028   Data   RO         2520    .constdata          m_wm.l(sin_i.o)
    0x000061d8   0x000061d8   0x00000025   Data   RO           16    .conststring        exemplotiva.o
    0x000061fd   0x000061fd   0x00000003   PAD
    0x00006200   0x00006200   0x00000020   Data   RO         2684    Region$$Table       anon$$obj.o


    Execution Region RW_IRAM1 (Exec base: 0x20000000, Load base: 0x00006220, Size: 0x00002fe8, Max: 0x00040000, ABSOLUTE)

    Exec Addr    Load Addr    Size         Type   Attr      Idx    E Section Name        Object

    0x20000000   0x00006220   0x00000030   Data   RW           17    .data               exemplotiva.o
    0x20000030   0x00006250   0x00000008   Data   RW          189    .data               cfaf128x128x16.o
    0x20000038   0x00006258   0x00000004   Data   RW          260    .data               rtx_conf_cm.o
    0x2000003c   0x0000625c   0x00000004   Data   RW          261    .data               rtx_conf_cm.o
    0x20000040   0x00006260   0x00000004   Data   RW          262    .data               rtx_conf_cm.o
    0x20000044   0x00006264   0x00000004   Data   RW          263    .data               rtx_conf_cm.o
    0x20000048   0x00006268   0x00000004   Data   RW          298    .data               system_tm4c129.o
    0x2000004c   0x0000626c   0x00000004   Data   RW          706    .data               grlib.lib(context.o)
    0x20000050   0x00006270   0x00000008   Data   RW          976    .data               RTX_CM4.lib(rt_cmsis.o)
    0x20000058   0x00006278   0x00000008   Data   RW         1513    .data               RTX_CM4.lib(rt_task.o)
    0x20000060   0x00006280   0x00000008   Data   RW         1910    .data               RTX_CM4.lib(rt_system.o)
    0x20000068   0x00006288   0x00000004   Data   RW         2200    .data               RTX_CM4.lib(rt_time.o)
    0x2000006c   0x0000628c   0x00000008   Data   RW         2231    .data               RTX_CM4.lib(rt_robin.o)
    0x20000074   0x00006294   0x00000001   Data   RW         2311    .data               RTX_CM4.lib(hal_cm.o)
    0x20000075   0x00006295   0x00000003   PAD
    0x20000078        -       0x00000024   Zero   RW            5    .bss                exemplotiva.o
    0x2000009c        -       0x00000024   Zero   RW            6    .bss                exemplotiva.o
    0x200000c0        -       0x00000024   Zero   RW            7    .bss                exemplotiva.o
    0x200000e4        -       0x00000024   Zero   RW            8    .bss                exemplotiva.o
    0x20000108        -       0x00000104   Zero   RW            9    .bss                exemplotiva.o
    0x2000020c        -       0x00000020   Zero   RW          235    .bss                rtx_conf_cm.o
    0x2000022c        -       0x00000248   Zero   RW          236    .bss                rtx_conf_cm.o
    0x20000474   0x00006295   0x00000004   PAD
    0x20000478        -       0x00001f50   Zero   RW          237    .bss                rtx_conf_cm.o
    0x200023c8        -       0x00000408   Zero   RW          238    .bss                rtx_conf_cm.o
    0x200027d0        -       0x00000084   Zero   RW          239    .bss                rtx_conf_cm.o
    0x20002854        -       0x0000002c   Zero   RW          240    .bss                rtx_conf_cm.o
    0x20002880        -       0x000004a0   Zero   RW          241    .bss                rtx_conf_cm.o
    0x20002d20        -       0x00000034   Zero   RW         1512    .bss                RTX_CM4.lib(rt_task.o)
    0x20002d54        -       0x00000030   Zero   RW         2040    .bss                RTX_CM4.lib(rt_list.o)
    0x20002d84        -       0x00000060   Zero   RW         2373    .bss                c_w.l(libspace.o)
    0x20002de4   0x00006295   0x00000004   PAD
    0x20002de8        -       0x00000000   Zero   RW          288    HEAP                startup_tm4c129.o
    0x20002de8        -       0x00000200   Zero   RW          287    STACK               startup_tm4c129.o


==============================================================================

Image component sizes


      Code (inc. data)   RO Data    RW Data    ZI Data      Debug   Object Name

      1788         94         40          8          0      10718   cfaf128x128x16.o
      3644        554        317         48        404      44423   exemplotiva.o
       328         34          0          0          0        868   pwm.o
       168         36         84         16      11024       8957   rtx_conf_cm.o
       300         22        512          0        512       6036   startup_tm4c129.o
        40         14          0          4          0        893   system_tm4c129.o
       148         28          0          0          0        816   timer.o
       256         28          0          0          0       1243   uart.o

    ----------------------------------------------------------------------
      6672        810       1000         76      11944      73954   Object Totals
         0          0         32          0          0          0   (incl. Generated)
         0          0         15          0          4          0   (incl. Padding)

    ----------------------------------------------------------------------

      Code (inc. data)   RO Data    RW Data    ZI Data      Debug   Library Member Name

       268         24          0          1          0       4524   hal_cm.o
       408         34          0          0          0        824   hal_cm4.o
      1592        196          0          8          0      43810   rt_cmsis.o
       272         18          0          0          0       2842   rt_event.o
       566         44          0          0         48       9272   rt_list.o
       706         14          0          0          0       5123   rt_mailbox.o
       140          0          0          0          0       2069   rt_membox.o
       128          0          0          0          0       2451   rt_memory.o
       352         14          0          0          0       2249   rt_mutex.o
        96         22          0          8          0       1254   rt_robin.o
        52          4          0          0          0        621   rt_semaphore.o
       334         64          0          8          0       7475   rt_system.o
      1264        184          0          8         52      10675   rt_task.o
         6          0          0          4          0        700   rt_time.o
         4          4          0          0          0        208   svc_table.o
         8          0          0          0          0         68   __main.o
         0          0          0          0          0          0   __rtentry.o
        20          0          0          0          0          0   __rtentry2.o
         6          0          0          0          0          0   __rtentry4.o
        52          8          0          0          0          0   __scatter.o
        26          0          0          0          0          0   __scatter_copy.o
        28          0          0          0          0          0   __scatter_zi.o
        22          0          0          0          0        100   _rserrno.o
        18          0          0          0          0         80   exit.o
         6          0          0          0          0        152   heapauxi.o
         0          0          0          0          0          0   indicate_semi.o
         2          0          0          0          0          0   libinit.o
         6          0          0          0          0          0   libinit2.o
         2          0          0          0          0          0   libshutdown.o
         2          0          0          0          0          0   libshutdown2.o
         8          4          0          0         96         68   libspace.o
        72          0          0          0          0         76   llsdiv.o
       238          0          0          0          0        100   lludivv7m.o
         4          0          0          0          0         68   rt_errno_addr_twolibspace.o
       100          0          0          0          0         80   rt_memcpy_w.o
         2          0          0          0          0          0   rtexit.o
        10          0          0          0          0          0   rtexit2.o
        12          4          0          0          0         68   sys_exit.o
        74          0          0          0          0         80   sys_stackheap_outer.o
         2          0          0          0          0         68   use_no_semi.o
       748         42        596          0          0       7457   sysctl.o
        24          0          0          0          0        164   basic.o
        98          4          0          0          0        140   d2f.o
       826         16          0          0          0        492   daddsub_clz.o
       688        140          0          0          0        256   ddiv.o
        94          4          0          0          0        140   dfix.o
        84          0          0          0          0        232   dflt_clz.o
       340         12          0          0          0        152   dmul.o
       156          4          0          0          0        140   dnaninf.o
        12          0          0          0          0        116   dretinf.o
       408         56          0          0          0        168   dsqrt_umaal.o
        86          4          0          0          0        132   f2d.o
       140          4          0          0          0        132   fnaninf.o
        10          0          0          0          0        116   fpinit.o
        10          0          0          0          0        116   fretinf.o
         0          0          0          0          0          0   usenofp.o
         8          0          0          0          0       1494   charmap.o
       100         12         16          4          0      26443   context.o
         0          0        960          0          0      25662   fontfixed6x8.o
      1240          0          0          0          0       9079   string.o
       728        106        152          0          0        228   atan.o
       200         20          0          0          0        164   cos.o
       368         46         48          0          0        200   cos_i.o
        84         16          0          0          0        372   dunder.o
        24          0          0          0          0        124   fabs.o
        48          0          0          0          0        124   fpclassify.o
       248          0          0          0          0        152   poly.o
      1080        142        200          0          0        188   rred.o
       200         20          0          0          0        164   sin.o
       304         24         40          0          0        208   sin_i.o
       122          0          0          0          0        148   sqrt.o

    ----------------------------------------------------------------------
     15436       1310       2012         44        200     169808   Library Totals
        50          0          0          3          4          0   (incl. Padding)

    ----------------------------------------------------------------------

      Code (inc. data)   RO Data    RW Data    ZI Data      Debug   Library Name

      6188        622          0         37        100      94097   RTX_CM4.lib
       720         16          0          0         96       1008   c_w.l
       748         42        596          0          0       7457   driverlib.lib
      2976        244          0          0          0       2496   fz_wm.l
      1348         12        976          4          0      62678   grlib.lib
      3406        374        440          0          0       2072   m_wm.l

    ----------------------------------------------------------------------
     15436       1310       2012         44        200     169808   Library Totals

    ----------------------------------------------------------------------

==============================================================================


      Code (inc. data)   RO Data    RW Data    ZI Data      Debug   

     22108       2120       3012        120      12144     229446   Grand Totals
     22108       2120       3012        120      12144     229446   ELF Image Totals
     22108       2120       3012        120          0          0   ROM Totals

==============================================================================

    Total RO  Size (Code + RO Data)                25120 (  24.53kB)
    Total RW  Size (RW Data + ZI Data)             12264 (  11.98kB)
    Total ROM Size (Code + RO Data + RW Data)      25240 (  24.65kB)

==============================================================================

